SF:/Users/mihaieremia/GitHub/rs-liquid-xoxno/src/config.rs
FN:18,_RNvXNtCs10KhxTnoMk3_15rs_liquid_xoxno6configINtNtNtCsh3ejzyzYXgs_13multiversx_sc13contract_base22universal_contract_obj20UniversalContractObjINtNtNtNtCseXgWFdEnwTg_22multiversx_sc_scenario3api7impl_vh12vm_hooks_api10VMHooksApiNtNtB2k_9debug_api15DebugApiBackendEENtB2_12ConfigModule10main_tokenCsazs3bHuZQb5_14blackbox_tests
FN:18,_RNvXNtCs10KhxTnoMk3_15rs_liquid_xoxno6configINtNtNtCsh3ejzyzYXgs_13multiversx_sc13contract_base22universal_contract_obj20UniversalContractObjINtNtNtNtCseXgWFdEnwTg_22multiversx_sc_scenario3api7impl_vh12vm_hooks_api10VMHooksApiNtNtB2k_9debug_api15DebugApiBackendEENtB2_12ConfigModule13unstake_tokenCsazs3bHuZQb5_14blackbox_tests
FN:18,_RNvXNtCs10KhxTnoMk3_15rs_liquid_xoxno6configINtNtNtCsh3ejzyzYXgs_13multiversx_sc13contract_base22universal_contract_obj20UniversalContractObjINtNtNtNtCseXgWFdEnwTg_22multiversx_sc_scenario3api7impl_vh12vm_hooks_api10VMHooksApiNtNtB2k_9debug_api15DebugApiBackendEENtB2_12ConfigModule15ls_token_supplyCsazs3bHuZQb5_14blackbox_tests
FN:18,_RNvXNtCs10KhxTnoMk3_15rs_liquid_xoxno6configINtNtNtCsh3ejzyzYXgs_13multiversx_sc13contract_base22universal_contract_obj20UniversalContractObjINtNtNtNtCseXgWFdEnwTg_22multiversx_sc_scenario3api7impl_vh12vm_hooks_api10VMHooksApiNtNtB2k_9debug_api15DebugApiBackendEENtB2_12ConfigModule20unstake_token_supplyCsazs3bHuZQb5_14blackbox_tests
FN:18,_RNvXNtCs10KhxTnoMk3_15rs_liquid_xoxno6configINtNtNtCsh3ejzyzYXgs_13multiversx_sc13contract_base22universal_contract_obj20UniversalContractObjINtNtNtNtCseXgWFdEnwTg_22multiversx_sc_scenario3api7impl_vh12vm_hooks_api10VMHooksApiNtNtB2k_9debug_api15DebugApiBackendEENtB2_12ConfigModule21virtual_xoxno_reserveCsazs3bHuZQb5_14blackbox_tests
FN:18,_RNvXNtCs10KhxTnoMk3_15rs_liquid_xoxno6configINtNtNtCsh3ejzyzYXgs_13multiversx_sc13contract_base22universal_contract_obj20UniversalContractObjINtNtNtNtCseXgWFdEnwTg_22multiversx_sc_scenario3api7impl_vh12vm_hooks_api10VMHooksApiNtNtB2k_9debug_api15DebugApiBackendEENtB2_12ConfigModule5stateCsazs3bHuZQb5_14blackbox_tests
FN:18,_RNvXNtCs10KhxTnoMk3_15rs_liquid_xoxno6configINtNtNtCsh3ejzyzYXgs_13multiversx_sc13contract_base22universal_contract_obj20UniversalContractObjINtNtNtNtCseXgWFdEnwTg_22multiversx_sc_scenario3api7impl_vh12vm_hooks_api10VMHooksApiNtNtB2k_9debug_api15DebugApiBackendEENtB2_12ConfigModule8ls_tokenCsazs3bHuZQb5_14blackbox_tests
FN:74,_RNvYINtNtNtCsh3ejzyzYXgs_13multiversx_sc13contract_base22universal_contract_obj20UniversalContractObjINtNtNtNtCseXgWFdEnwTg_22multiversx_sc_scenario3api7impl_vh12vm_hooks_api10VMHooksApiNtNtB1G_9debug_api15DebugApiBackendEENtNtCs10KhxTnoMk3_15rs_liquid_xoxno6config12ConfigModule15is_state_activeCsazs3bHuZQb5_14blackbox_tests
FN:63,_RNvYINtNtNtCsh3ejzyzYXgs_13multiversx_sc13contract_base22universal_contract_obj20UniversalContractObjINtNtNtNtCseXgWFdEnwTg_22multiversx_sc_scenario3api7impl_vh12vm_hooks_api10VMHooksApiNtNtB1G_9debug_api15DebugApiBackendEENtNtCs10KhxTnoMk3_15rs_liquid_xoxno6config12ConfigModule16set_state_activeCsazs3bHuZQb5_14blackbox_tests
FN:30,_RNvYINtNtNtCsh3ejzyzYXgs_13multiversx_sc13contract_base22universal_contract_obj20UniversalContractObjINtNtNtNtCseXgWFdEnwTg_22multiversx_sc_scenario3api7impl_vh12vm_hooks_api10VMHooksApiNtNtB1G_9debug_api15DebugApiBackendEENtNtCs10KhxTnoMk3_15rs_liquid_xoxno6config12ConfigModule17register_ls_tokenCsazs3bHuZQb5_14blackbox_tests
FN:69,_RNvYINtNtNtCsh3ejzyzYXgs_13multiversx_sc13contract_base22universal_contract_obj20UniversalContractObjINtNtNtNtCseXgWFdEnwTg_22multiversx_sc_scenario3api7impl_vh12vm_hooks_api10VMHooksApiNtNtB1G_9debug_api15DebugApiBackendEENtNtCs10KhxTnoMk3_15rs_liquid_xoxno6config12ConfigModule18set_state_inactiveCsazs3bHuZQb5_14blackbox_tests
FN:49,_RNvYINtNtNtCsh3ejzyzYXgs_13multiversx_sc13contract_base22universal_contract_obj20UniversalContractObjINtNtNtNtCseXgWFdEnwTg_22multiversx_sc_scenario3api7impl_vh12vm_hooks_api10VMHooksApiNtNtB1G_9debug_api15DebugApiBackendEENtNtCs10KhxTnoMk3_15rs_liquid_xoxno6config12ConfigModule22register_unstake_tokenCsazs3bHuZQb5_14blackbox_tests
FN:18,_RNvYINtNtNtCsh3ejzyzYXgs_13multiversx_sc13contract_base22universal_contract_obj20UniversalContractObjINtNtNtNtCseXgWFdEnwTg_22multiversx_sc_scenario3api7impl_vh12vm_hooks_api10VMHooksApiNtNtB1G_9debug_api15DebugApiBackendEENtNtCs10KhxTnoMk3_15rs_liquid_xoxno6config16EndpointWrappers10call_stateCsazs3bHuZQb5_14blackbox_tests
FN:18,_RNvYINtNtNtCsh3ejzyzYXgs_13multiversx_sc13contract_base22universal_contract_obj20UniversalContractObjINtNtNtNtCseXgWFdEnwTg_22multiversx_sc_scenario3api7impl_vh12vm_hooks_api10VMHooksApiNtNtB1G_9debug_api15DebugApiBackendEENtNtCs10KhxTnoMk3_15rs_liquid_xoxno6config16EndpointWrappers13call_ls_tokenCsazs3bHuZQb5_14blackbox_tests
FN:18,_RNvYINtNtNtCsh3ejzyzYXgs_13multiversx_sc13contract_base22universal_contract_obj20UniversalContractObjINtNtNtNtCseXgWFdEnwTg_22multiversx_sc_scenario3api7impl_vh12vm_hooks_api10VMHooksApiNtNtB1G_9debug_api15DebugApiBackendEENtNtCs10KhxTnoMk3_15rs_liquid_xoxno6config16EndpointWrappers15call_main_tokenCsazs3bHuZQb5_14blackbox_tests
FN:18,_RNvYINtNtNtCsh3ejzyzYXgs_13multiversx_sc13contract_base22universal_contract_obj20UniversalContractObjINtNtNtNtCseXgWFdEnwTg_22multiversx_sc_scenario3api7impl_vh12vm_hooks_api10VMHooksApiNtNtB1G_9debug_api15DebugApiBackendEENtNtCs10KhxTnoMk3_15rs_liquid_xoxno6config16EndpointWrappers17callback_selectorCsazs3bHuZQb5_14blackbox_tests
FN:18,_RNvYINtNtNtCsh3ejzyzYXgs_13multiversx_sc13contract_base22universal_contract_obj20UniversalContractObjINtNtNtNtCseXgWFdEnwTg_22multiversx_sc_scenario3api7impl_vh12vm_hooks_api10VMHooksApiNtNtB1G_9debug_api15DebugApiBackendEENtNtCs10KhxTnoMk3_15rs_liquid_xoxno6config16EndpointWrappers18call_unstake_tokenCsazs3bHuZQb5_14blackbox_tests
FN:18,_RNvYINtNtNtCsh3ejzyzYXgs_13multiversx_sc13contract_base22universal_contract_obj20UniversalContractObjINtNtNtNtCseXgWFdEnwTg_22multiversx_sc_scenario3api7impl_vh12vm_hooks_api10VMHooksApiNtNtB1G_9debug_api15DebugApiBackendEENtNtCs10KhxTnoMk3_15rs_liquid_xoxno6config16EndpointWrappers20call_ls_token_supplyCsazs3bHuZQb5_14blackbox_tests
FN:18,_RNvYINtNtNtCsh3ejzyzYXgs_13multiversx_sc13contract_base22universal_contract_obj20UniversalContractObjINtNtNtNtCseXgWFdEnwTg_22multiversx_sc_scenario3api7impl_vh12vm_hooks_api10VMHooksApiNtNtB1G_9debug_api15DebugApiBackendEENtNtCs10KhxTnoMk3_15rs_liquid_xoxno6config16EndpointWrappers21call_set_state_activeCsazs3bHuZQb5_14blackbox_tests
FN:18,_RNvYINtNtNtCsh3ejzyzYXgs_13multiversx_sc13contract_base22universal_contract_obj20UniversalContractObjINtNtNtNtCseXgWFdEnwTg_22multiversx_sc_scenario3api7impl_vh12vm_hooks_api10VMHooksApiNtNtB1G_9debug_api15DebugApiBackendEENtNtCs10KhxTnoMk3_15rs_liquid_xoxno6config16EndpointWrappers22call_register_ls_tokenCsazs3bHuZQb5_14blackbox_tests
FN:18,_RNvYINtNtNtCsh3ejzyzYXgs_13multiversx_sc13contract_base22universal_contract_obj20UniversalContractObjINtNtNtNtCseXgWFdEnwTg_22multiversx_sc_scenario3api7impl_vh12vm_hooks_api10VMHooksApiNtNtB1G_9debug_api15DebugApiBackendEENtNtCs10KhxTnoMk3_15rs_liquid_xoxno6config16EndpointWrappers23call_set_state_inactiveCsazs3bHuZQb5_14blackbox_tests
FN:18,_RNvYINtNtNtCsh3ejzyzYXgs_13multiversx_sc13contract_base22universal_contract_obj20UniversalContractObjINtNtNtNtCseXgWFdEnwTg_22multiversx_sc_scenario3api7impl_vh12vm_hooks_api10VMHooksApiNtNtB1G_9debug_api15DebugApiBackendEENtNtCs10KhxTnoMk3_15rs_liquid_xoxno6config16EndpointWrappers25call_unstake_token_supplyCsazs3bHuZQb5_14blackbox_tests
FN:18,_RNvYINtNtNtCsh3ejzyzYXgs_13multiversx_sc13contract_base22universal_contract_obj20UniversalContractObjINtNtNtNtCseXgWFdEnwTg_22multiversx_sc_scenario3api7impl_vh12vm_hooks_api10VMHooksApiNtNtB1G_9debug_api15DebugApiBackendEENtNtCs10KhxTnoMk3_15rs_liquid_xoxno6config16EndpointWrappers26call_virtual_xoxno_reserveCsazs3bHuZQb5_14blackbox_tests
FN:18,_RNvYINtNtNtCsh3ejzyzYXgs_13multiversx_sc13contract_base22universal_contract_obj20UniversalContractObjINtNtNtNtCseXgWFdEnwTg_22multiversx_sc_scenario3api7impl_vh12vm_hooks_api10VMHooksApiNtNtB1G_9debug_api15DebugApiBackendEENtNtCs10KhxTnoMk3_15rs_liquid_xoxno6config16EndpointWrappers27call_register_unstake_tokenCsazs3bHuZQb5_14blackbox_tests
FN:18,_RNvYINtNtNtCsh3ejzyzYXgs_13multiversx_sc13contract_base22universal_contract_obj20UniversalContractObjINtNtNtNtCseXgWFdEnwTg_22multiversx_sc_scenario3api7impl_vh12vm_hooks_api10VMHooksApiNtNtB1G_9debug_api15DebugApiBackendEENtNtCs10KhxTnoMk3_15rs_liquid_xoxno6config16EndpointWrappers4callCsazs3bHuZQb5_14blackbox_tests
FN:18,_RNvYINtNtNtCsh3ejzyzYXgs_13multiversx_sc13contract_base22universal_contract_obj20UniversalContractObjINtNtNtNtCseXgWFdEnwTg_22multiversx_sc_scenario3api7impl_vh12vm_hooks_api10VMHooksApiNtNtB1G_9debug_api15DebugApiBackendEENtNtCs10KhxTnoMk3_15rs_liquid_xoxno6config16EndpointWrappers8callbackCsazs3bHuZQb5_14blackbox_tests
FN:10,_RINvXsc_NtCs10KhxTnoMk3_15rs_liquid_xoxno6configINtB6_22UnstakeTokenAttributesINtNtNtNtCseXgWFdEnwTg_22multiversx_sc_scenario3api7impl_vh12vm_hooks_api10VMHooksApiNtNtB1j_9debug_api15DebugApiBackendEENtNtNtCsjx1dcze9jAA_19multiversx_sc_codec6single6top_en9TopEncode24top_encode_or_handle_errQINtNtNtNtNtCsh3ejzyzYXgs_13multiversx_sc5types7managed5basic14managed_buffer13ManagedBufferB1e_EINtNtNtNtB4R_13contract_base8wrappers10serializer21ExitCodecErrorHandlerB1e_EECsazs3bHuZQb5_14blackbox_tests
FN:10,_RINvXsd_NtCs10KhxTnoMk3_15rs_liquid_xoxno6configINtB6_22UnstakeTokenAttributesINtNtNtNtCseXgWFdEnwTg_22multiversx_sc_scenario3api7impl_vh12vm_hooks_api10VMHooksApiNtNtB1j_9debug_api15DebugApiBackendEENtNtNtCsjx1dcze9jAA_19multiversx_sc_codec6single6top_de9TopDecode24top_decode_or_handle_errINtNtNtNtNtCsh3ejzyzYXgs_13multiversx_sc5types7managed5basic14managed_buffer13ManagedBufferB1e_EINtNtNtNtB4Q_13contract_base8wrappers10serializer21ExitCodecErrorHandlerB1e_EECsazs3bHuZQb5_14blackbox_tests
FN:10,_RINvXININtCs9vgV5lU4rR1_15rs_liquid_xoxno6configsc_0pEINtB6_22UnstakeTokenAttributespENtNtNtCsjx1dcze9jAA_19multiversx_sc_codec6single6top_en9TopEncode24top_encode_or_handle_errppEB8_
FN:10,_RINvXININtCs9vgV5lU4rR1_15rs_liquid_xoxno6configsd_0pEINtB6_22UnstakeTokenAttributespENtNtNtCsjx1dcze9jAA_19multiversx_sc_codec6single6top_de9TopDecode24top_decode_or_handle_errppEB8_
FN:10,_RINvXININtCs9vgV5lU4rR1_15rs_liquid_xoxno6configse_0pEINtB6_22UnstakeTokenAttributespENtNtNtCsjx1dcze9jAA_19multiversx_sc_codec6single9nested_en12NestedEncode24dep_encode_or_handle_errppEB8_
FN:10,_RINvXININtCs9vgV5lU4rR1_15rs_liquid_xoxno6configsf_0pEINtB6_22UnstakeTokenAttributespENtNtNtCsjx1dcze9jAA_19multiversx_sc_codec6single9nested_de12NestedDecode24dep_decode_or_handle_errppEB8_
FN:9,_RNvXININtCs9vgV5lU4rR1_15rs_liquid_xoxno6configsb_0pEINtB5_22UnstakeTokenAttributespENtNtNtCsh3ejzyzYXgs_13multiversx_sc3abi8type_abi7TypeAbi9type_nameB7_
FN:9,_RINvXININtCs9vgV5lU4rR1_15rs_liquid_xoxno6configsb_0pEINtB6_22UnstakeTokenAttributespENtNtNtCsh3ejzyzYXgs_13multiversx_sc3abi8type_abi7TypeAbi25provide_type_descriptionspEB8_
FN:30,_RNvYpNtNtCs9vgV5lU4rR1_15rs_liquid_xoxno6config12ConfigModule17register_ls_tokenB7_
FN:49,_RNvYpNtNtCs9vgV5lU4rR1_15rs_liquid_xoxno6config12ConfigModule22register_unstake_tokenB7_
FN:63,_RNvYpNtNtCs9vgV5lU4rR1_15rs_liquid_xoxno6config12ConfigModule16set_state_activeB7_
FN:69,_RNvYpNtNtCs9vgV5lU4rR1_15rs_liquid_xoxno6config12ConfigModule18set_state_inactiveB7_
FN:74,_RNvYpNtNtCs9vgV5lU4rR1_15rs_liquid_xoxno6config12ConfigModule15is_state_activeB7_
FN:18,_RNvXININtCs9vgV5lU4rR1_15rs_liquid_xoxno6config0pEpNtB5_12ConfigModule5stateB7_
FN:18,_RNvXININtCs9vgV5lU4rR1_15rs_liquid_xoxno6config0pEpNtB5_12ConfigModule8ls_tokenB7_
FN:18,_RNvXININtCs9vgV5lU4rR1_15rs_liquid_xoxno6config0pEpNtB5_12ConfigModule10main_tokenB7_
FN:18,_RNvXININtCs9vgV5lU4rR1_15rs_liquid_xoxno6config0pEpNtB5_12ConfigModule15ls_token_supplyB7_
FN:18,_RNvXININtCs9vgV5lU4rR1_15rs_liquid_xoxno6config0pEpNtB5_12ConfigModule21virtual_xoxno_reserveB7_
FN:18,_RNvXININtCs9vgV5lU4rR1_15rs_liquid_xoxno6config0pEpNtB5_12ConfigModule13unstake_tokenB7_
FN:18,_RNvXININtCs9vgV5lU4rR1_15rs_liquid_xoxno6config0pEpNtB5_12ConfigModule20unstake_token_supplyB7_
FN:18,_RNvYpNtNtCs9vgV5lU4rR1_15rs_liquid_xoxno6config16EndpointWrappers22call_register_ls_tokenB7_
FN:18,_RNvYpNtNtCs9vgV5lU4rR1_15rs_liquid_xoxno6config16EndpointWrappers27call_register_unstake_tokenB7_
FN:18,_RNvYpNtNtCs9vgV5lU4rR1_15rs_liquid_xoxno6config16EndpointWrappers21call_set_state_activeB7_
FN:18,_RNvYpNtNtCs9vgV5lU4rR1_15rs_liquid_xoxno6config16EndpointWrappers23call_set_state_inactiveB7_
FN:18,_RNvYpNtNtCs9vgV5lU4rR1_15rs_liquid_xoxno6config16EndpointWrappers10call_stateB7_
FN:18,_RNvYpNtNtCs9vgV5lU4rR1_15rs_liquid_xoxno6config16EndpointWrappers13call_ls_tokenB7_
FN:18,_RNvYpNtNtCs9vgV5lU4rR1_15rs_liquid_xoxno6config16EndpointWrappers15call_main_tokenB7_
FN:18,_RNvYpNtNtCs9vgV5lU4rR1_15rs_liquid_xoxno6config16EndpointWrappers20call_ls_token_supplyB7_
FN:18,_RNvYpNtNtCs9vgV5lU4rR1_15rs_liquid_xoxno6config16EndpointWrappers26call_virtual_xoxno_reserveB7_
FN:18,_RNvYpNtNtCs9vgV5lU4rR1_15rs_liquid_xoxno6config16EndpointWrappers18call_unstake_tokenB7_
FN:18,_RNvYpNtNtCs9vgV5lU4rR1_15rs_liquid_xoxno6config16EndpointWrappers25call_unstake_token_supplyB7_
FN:18,_RNvYpNtNtCs9vgV5lU4rR1_15rs_liquid_xoxno6config16EndpointWrappers4callB7_
FN:18,_RNvYpNtNtCs9vgV5lU4rR1_15rs_liquid_xoxno6config16EndpointWrappers17callback_selectorB7_
FN:18,_RNvYpNtNtCs9vgV5lU4rR1_15rs_liquid_xoxno6config16EndpointWrappers8callbackB7_
FN:18,_RNvXs1_NtCs9vgV5lU4rR1_15rs_liquid_xoxno6configNtB5_11AbiProviderNtNtNtCsh3ejzyzYXgs_13multiversx_sc13contract_base21contract_abi_provider19ContractAbiProvider3abi
FN:18,_RNvXININtCs9vgV5lU4rR1_15rs_liquid_xoxno6configs7_0pEINtB5_11ContractObjpENtNtNtCsh3ejzyzYXgs_13multiversx_sc13contract_base17callable_contract16CallableContract4callB7_
FN:18,_RINvNtCs9vgV5lU4rR1_15rs_liquid_xoxno6config12contract_objpEB4_
FN:18,_RINvXs8_NtCs9vgV5lU4rR1_15rs_liquid_xoxno6configNtB6_15ContractBuilderNtNtNtCsh3ejzyzYXgs_13multiversx_sc13contract_base17callable_contract23CallableContractBuilder16new_contract_objpEB8_
FN:18,_RINvNtNtCs9vgV5lU4rR1_15rs_liquid_xoxno6config19___wasm__endpoints__17register_ls_tokenpEB6_
FN:18,_RINvNtNtCs9vgV5lU4rR1_15rs_liquid_xoxno6config19___wasm__endpoints__22register_unstake_tokenpEB6_
FN:18,_RINvNtNtCs9vgV5lU4rR1_15rs_liquid_xoxno6config19___wasm__endpoints__16set_state_activepEB6_
FN:18,_RINvNtNtCs9vgV5lU4rR1_15rs_liquid_xoxno6config19___wasm__endpoints__18set_state_inactivepEB6_
FN:18,_RINvNtNtCs9vgV5lU4rR1_15rs_liquid_xoxno6config19___wasm__endpoints__5statepEB6_
FN:18,_RINvNtNtCs9vgV5lU4rR1_15rs_liquid_xoxno6config19___wasm__endpoints__8ls_tokenpEB6_
FN:18,_RINvNtNtCs9vgV5lU4rR1_15rs_liquid_xoxno6config19___wasm__endpoints__10main_tokenpEB6_
FN:18,_RINvNtNtCs9vgV5lU4rR1_15rs_liquid_xoxno6config19___wasm__endpoints__15ls_token_supplypEB6_
FN:18,_RINvNtNtCs9vgV5lU4rR1_15rs_liquid_xoxno6config19___wasm__endpoints__21virtual_xoxno_reservepEB6_
FN:18,_RINvNtNtCs9vgV5lU4rR1_15rs_liquid_xoxno6config19___wasm__endpoints__13unstake_tokenpEB6_
FN:18,_RINvNtNtCs9vgV5lU4rR1_15rs_liquid_xoxno6config19___wasm__endpoints__20unstake_token_supplypEB6_
FN:18,_RINvYpNtNtCs9vgV5lU4rR1_15rs_liquid_xoxno6config10ProxyTrait17register_ls_tokenpppEB8_
FN:18,_RINvYpNtNtCs9vgV5lU4rR1_15rs_liquid_xoxno6config10ProxyTrait22register_unstake_tokenpppEB8_
FN:18,_RNvYpNtNtCs9vgV5lU4rR1_15rs_liquid_xoxno6config10ProxyTrait16set_state_activeB7_
FN:18,_RNvYpNtNtCs9vgV5lU4rR1_15rs_liquid_xoxno6config10ProxyTrait18set_state_inactiveB7_
FN:18,_RNvYpNtNtCs9vgV5lU4rR1_15rs_liquid_xoxno6config10ProxyTrait5stateB7_
FN:18,_RNvYpNtNtCs9vgV5lU4rR1_15rs_liquid_xoxno6config10ProxyTrait8ls_tokenB7_
FN:18,_RNvYpNtNtCs9vgV5lU4rR1_15rs_liquid_xoxno6config10ProxyTrait10main_tokenB7_
FN:18,_RNvYpNtNtCs9vgV5lU4rR1_15rs_liquid_xoxno6config10ProxyTrait15ls_token_supplyB7_
FN:18,_RNvYpNtNtCs9vgV5lU4rR1_15rs_liquid_xoxno6config10ProxyTrait21virtual_xoxno_reserveB7_
FN:18,_RNvYpNtNtCs9vgV5lU4rR1_15rs_liquid_xoxno6config10ProxyTrait13unstake_tokenB7_
FN:18,_RNvYpNtNtCs9vgV5lU4rR1_15rs_liquid_xoxno6config10ProxyTrait20unstake_token_supplyB7_
FNDA:33,_RNvXNtCs10KhxTnoMk3_15rs_liquid_xoxno6configINtNtNtCsh3ejzyzYXgs_13multiversx_sc13contract_base22universal_contract_obj20UniversalContractObjINtNtNtNtCseXgWFdEnwTg_22multiversx_sc_scenario3api7impl_vh12vm_hooks_api10VMHooksApiNtNtB2k_9debug_api15DebugApiBackendEENtB2_12ConfigModule10main_tokenCsazs3bHuZQb5_14blackbox_tests
FNDA:11,_RNvXNtCs10KhxTnoMk3_15rs_liquid_xoxno6configINtNtNtCsh3ejzyzYXgs_13multiversx_sc13contract_base22universal_contract_obj20UniversalContractObjINtNtNtNtCseXgWFdEnwTg_22multiversx_sc_scenario3api7impl_vh12vm_hooks_api10VMHooksApiNtNtB2k_9debug_api15DebugApiBackendEENtB2_12ConfigModule13unstake_tokenCsazs3bHuZQb5_14blackbox_tests
FNDA:83,_RNvXNtCs10KhxTnoMk3_15rs_liquid_xoxno6configINtNtNtCsh3ejzyzYXgs_13multiversx_sc13contract_base22universal_contract_obj20UniversalContractObjINtNtNtNtCseXgWFdEnwTg_22multiversx_sc_scenario3api7impl_vh12vm_hooks_api10VMHooksApiNtNtB2k_9debug_api15DebugApiBackendEENtB2_12ConfigModule15ls_token_supplyCsazs3bHuZQb5_14blackbox_tests
FNDA:65,_RNvXNtCs10KhxTnoMk3_15rs_liquid_xoxno6configINtNtNtCsh3ejzyzYXgs_13multiversx_sc13contract_base22universal_contract_obj20UniversalContractObjINtNtNtNtCseXgWFdEnwTg_22multiversx_sc_scenario3api7impl_vh12vm_hooks_api10VMHooksApiNtNtB2k_9debug_api15DebugApiBackendEENtB2_12ConfigModule20unstake_token_supplyCsazs3bHuZQb5_14blackbox_tests
FNDA:84,_RNvXNtCs10KhxTnoMk3_15rs_liquid_xoxno6configINtNtNtCsh3ejzyzYXgs_13multiversx_sc13contract_base22universal_contract_obj20UniversalContractObjINtNtNtNtCseXgWFdEnwTg_22multiversx_sc_scenario3api7impl_vh12vm_hooks_api10VMHooksApiNtNtB2k_9debug_api15DebugApiBackendEENtB2_12ConfigModule21virtual_xoxno_reserveCsazs3bHuZQb5_14blackbox_tests
FNDA:48,_RNvXNtCs10KhxTnoMk3_15rs_liquid_xoxno6configINtNtNtCsh3ejzyzYXgs_13multiversx_sc13contract_base22universal_contract_obj20UniversalContractObjINtNtNtNtCseXgWFdEnwTg_22multiversx_sc_scenario3api7impl_vh12vm_hooks_api10VMHooksApiNtNtB2k_9debug_api15DebugApiBackendEENtB2_12ConfigModule5stateCsazs3bHuZQb5_14blackbox_tests
FNDA:54,_RNvXNtCs10KhxTnoMk3_15rs_liquid_xoxno6configINtNtNtCsh3ejzyzYXgs_13multiversx_sc13contract_base22universal_contract_obj20UniversalContractObjINtNtNtNtCseXgWFdEnwTg_22multiversx_sc_scenario3api7impl_vh12vm_hooks_api10VMHooksApiNtNtB2k_9debug_api15DebugApiBackendEENtB2_12ConfigModule8ls_tokenCsazs3bHuZQb5_14blackbox_tests
FNDA:32,_RNvYINtNtNtCsh3ejzyzYXgs_13multiversx_sc13contract_base22universal_contract_obj20UniversalContractObjINtNtNtNtCseXgWFdEnwTg_22multiversx_sc_scenario3api7impl_vh12vm_hooks_api10VMHooksApiNtNtB1G_9debug_api15DebugApiBackendEENtNtCs10KhxTnoMk3_15rs_liquid_xoxno6config12ConfigModule15is_state_activeCsazs3bHuZQb5_14blackbox_tests
FNDA:12,_RNvYINtNtNtCsh3ejzyzYXgs_13multiversx_sc13contract_base22universal_contract_obj20UniversalContractObjINtNtNtNtCseXgWFdEnwTg_22multiversx_sc_scenario3api7impl_vh12vm_hooks_api10VMHooksApiNtNtB1G_9debug_api15DebugApiBackendEENtNtCs10KhxTnoMk3_15rs_liquid_xoxno6config12ConfigModule16set_state_activeCsazs3bHuZQb5_14blackbox_tests
FNDA:0,_RNvYINtNtNtCsh3ejzyzYXgs_13multiversx_sc13contract_base22universal_contract_obj20UniversalContractObjINtNtNtNtCseXgWFdEnwTg_22multiversx_sc_scenario3api7impl_vh12vm_hooks_api10VMHooksApiNtNtB1G_9debug_api15DebugApiBackendEENtNtCs10KhxTnoMk3_15rs_liquid_xoxno6config12ConfigModule17register_ls_tokenCsazs3bHuZQb5_14blackbox_tests
FNDA:1,_RNvYINtNtNtCsh3ejzyzYXgs_13multiversx_sc13contract_base22universal_contract_obj20UniversalContractObjINtNtNtNtCseXgWFdEnwTg_22multiversx_sc_scenario3api7impl_vh12vm_hooks_api10VMHooksApiNtNtB1G_9debug_api15DebugApiBackendEENtNtCs10KhxTnoMk3_15rs_liquid_xoxno6config12ConfigModule18set_state_inactiveCsazs3bHuZQb5_14blackbox_tests
FNDA:0,_RNvYINtNtNtCsh3ejzyzYXgs_13multiversx_sc13contract_base22universal_contract_obj20UniversalContractObjINtNtNtNtCseXgWFdEnwTg_22multiversx_sc_scenario3api7impl_vh12vm_hooks_api10VMHooksApiNtNtB1G_9debug_api15DebugApiBackendEENtNtCs10KhxTnoMk3_15rs_liquid_xoxno6config12ConfigModule22register_unstake_tokenCsazs3bHuZQb5_14blackbox_tests
FNDA:3,_RNvYINtNtNtCsh3ejzyzYXgs_13multiversx_sc13contract_base22universal_contract_obj20UniversalContractObjINtNtNtNtCseXgWFdEnwTg_22multiversx_sc_scenario3api7impl_vh12vm_hooks_api10VMHooksApiNtNtB1G_9debug_api15DebugApiBackendEENtNtCs10KhxTnoMk3_15rs_liquid_xoxno6config16EndpointWrappers10call_stateCsazs3bHuZQb5_14blackbox_tests
FNDA:0,_RNvYINtNtNtCsh3ejzyzYXgs_13multiversx_sc13contract_base22universal_contract_obj20UniversalContractObjINtNtNtNtCseXgWFdEnwTg_22multiversx_sc_scenario3api7impl_vh12vm_hooks_api10VMHooksApiNtNtB1G_9debug_api15DebugApiBackendEENtNtCs10KhxTnoMk3_15rs_liquid_xoxno6config16EndpointWrappers13call_ls_tokenCsazs3bHuZQb5_14blackbox_tests
FNDA:1,_RNvYINtNtNtCsh3ejzyzYXgs_13multiversx_sc13contract_base22universal_contract_obj20UniversalContractObjINtNtNtNtCseXgWFdEnwTg_22multiversx_sc_scenario3api7impl_vh12vm_hooks_api10VMHooksApiNtNtB1G_9debug_api15DebugApiBackendEENtNtCs10KhxTnoMk3_15rs_liquid_xoxno6config16EndpointWrappers15call_main_tokenCsazs3bHuZQb5_14blackbox_tests
FNDA:0,_RNvYINtNtNtCsh3ejzyzYXgs_13multiversx_sc13contract_base22universal_contract_obj20UniversalContractObjINtNtNtNtCseXgWFdEnwTg_22multiversx_sc_scenario3api7impl_vh12vm_hooks_api10VMHooksApiNtNtB1G_9debug_api15DebugApiBackendEENtNtCs10KhxTnoMk3_15rs_liquid_xoxno6config16EndpointWrappers17callback_selectorCsazs3bHuZQb5_14blackbox_tests
FNDA:0,_RNvYINtNtNtCsh3ejzyzYXgs_13multiversx_sc13contract_base22universal_contract_obj20UniversalContractObjINtNtNtNtCseXgWFdEnwTg_22multiversx_sc_scenario3api7impl_vh12vm_hooks_api10VMHooksApiNtNtB1G_9debug_api15DebugApiBackendEENtNtCs10KhxTnoMk3_15rs_liquid_xoxno6config16EndpointWrappers18call_unstake_tokenCsazs3bHuZQb5_14blackbox_tests
FNDA:19,_RNvYINtNtNtCsh3ejzyzYXgs_13multiversx_sc13contract_base22universal_contract_obj20UniversalContractObjINtNtNtNtCseXgWFdEnwTg_22multiversx_sc_scenario3api7impl_vh12vm_hooks_api10VMHooksApiNtNtB1G_9debug_api15DebugApiBackendEENtNtCs10KhxTnoMk3_15rs_liquid_xoxno6config16EndpointWrappers20call_ls_token_supplyCsazs3bHuZQb5_14blackbox_tests
FNDA:12,_RNvYINtNtNtCsh3ejzyzYXgs_13multiversx_sc13contract_base22universal_contract_obj20UniversalContractObjINtNtNtNtCseXgWFdEnwTg_22multiversx_sc_scenario3api7impl_vh12vm_hooks_api10VMHooksApiNtNtB1G_9debug_api15DebugApiBackendEENtNtCs10KhxTnoMk3_15rs_liquid_xoxno6config16EndpointWrappers21call_set_state_activeCsazs3bHuZQb5_14blackbox_tests
FNDA:0,_RNvYINtNtNtCsh3ejzyzYXgs_13multiversx_sc13contract_base22universal_contract_obj20UniversalContractObjINtNtNtNtCseXgWFdEnwTg_22multiversx_sc_scenario3api7impl_vh12vm_hooks_api10VMHooksApiNtNtB1G_9debug_api15DebugApiBackendEENtNtCs10KhxTnoMk3_15rs_liquid_xoxno6config16EndpointWrappers22call_register_ls_tokenCsazs3bHuZQb5_14blackbox_tests
FNDA:1,_RNvYINtNtNtCsh3ejzyzYXgs_13multiversx_sc13contract_base22universal_contract_obj20UniversalContractObjINtNtNtNtCseXgWFdEnwTg_22multiversx_sc_scenario3api7impl_vh12vm_hooks_api10VMHooksApiNtNtB1G_9debug_api15DebugApiBackendEENtNtCs10KhxTnoMk3_15rs_liquid_xoxno6config16EndpointWrappers23call_set_state_inactiveCsazs3bHuZQb5_14blackbox_tests
FNDA:1,_RNvYINtNtNtCsh3ejzyzYXgs_13multiversx_sc13contract_base22universal_contract_obj20UniversalContractObjINtNtNtNtCseXgWFdEnwTg_22multiversx_sc_scenario3api7impl_vh12vm_hooks_api10VMHooksApiNtNtB1G_9debug_api15DebugApiBackendEENtNtCs10KhxTnoMk3_15rs_liquid_xoxno6config16EndpointWrappers25call_unstake_token_supplyCsazs3bHuZQb5_14blackbox_tests
FNDA:20,_RNvYINtNtNtCsh3ejzyzYXgs_13multiversx_sc13contract_base22universal_contract_obj20UniversalContractObjINtNtNtNtCseXgWFdEnwTg_22multiversx_sc_scenario3api7impl_vh12vm_hooks_api10VMHooksApiNtNtB1G_9debug_api15DebugApiBackendEENtNtCs10KhxTnoMk3_15rs_liquid_xoxno6config16EndpointWrappers26call_virtual_xoxno_reserveCsazs3bHuZQb5_14blackbox_tests
FNDA:0,_RNvYINtNtNtCsh3ejzyzYXgs_13multiversx_sc13contract_base22universal_contract_obj20UniversalContractObjINtNtNtNtCseXgWFdEnwTg_22multiversx_sc_scenario3api7impl_vh12vm_hooks_api10VMHooksApiNtNtB1G_9debug_api15DebugApiBackendEENtNtCs10KhxTnoMk3_15rs_liquid_xoxno6config16EndpointWrappers27call_register_unstake_tokenCsazs3bHuZQb5_14blackbox_tests
FNDA:57,_RNvYINtNtNtCsh3ejzyzYXgs_13multiversx_sc13contract_base22universal_contract_obj20UniversalContractObjINtNtNtNtCseXgWFdEnwTg_22multiversx_sc_scenario3api7impl_vh12vm_hooks_api10VMHooksApiNtNtB1G_9debug_api15DebugApiBackendEENtNtCs10KhxTnoMk3_15rs_liquid_xoxno6config16EndpointWrappers4callCsazs3bHuZQb5_14blackbox_tests
FNDA:0,_RNvYINtNtNtCsh3ejzyzYXgs_13multiversx_sc13contract_base22universal_contract_obj20UniversalContractObjINtNtNtNtCseXgWFdEnwTg_22multiversx_sc_scenario3api7impl_vh12vm_hooks_api10VMHooksApiNtNtB1G_9debug_api15DebugApiBackendEENtNtCs10KhxTnoMk3_15rs_liquid_xoxno6config16EndpointWrappers8callbackCsazs3bHuZQb5_14blackbox_tests
FNDA:6,_RINvXsc_NtCs10KhxTnoMk3_15rs_liquid_xoxno6configINtB6_22UnstakeTokenAttributesINtNtNtNtCseXgWFdEnwTg_22multiversx_sc_scenario3api7impl_vh12vm_hooks_api10VMHooksApiNtNtB1j_9debug_api15DebugApiBackendEENtNtNtCsjx1dcze9jAA_19multiversx_sc_codec6single6top_en9TopEncode24top_encode_or_handle_errQINtNtNtNtNtCsh3ejzyzYXgs_13multiversx_sc5types7managed5basic14managed_buffer13ManagedBufferB1e_EINtNtNtNtB4R_13contract_base8wrappers10serializer21ExitCodecErrorHandlerB1e_EECsazs3bHuZQb5_14blackbox_tests
FNDA:2,_RINvXsd_NtCs10KhxTnoMk3_15rs_liquid_xoxno6configINtB6_22UnstakeTokenAttributesINtNtNtNtCseXgWFdEnwTg_22multiversx_sc_scenario3api7impl_vh12vm_hooks_api10VMHooksApiNtNtB1j_9debug_api15DebugApiBackendEENtNtNtCsjx1dcze9jAA_19multiversx_sc_codec6single6top_de9TopDecode24top_decode_or_handle_errINtNtNtNtNtCsh3ejzyzYXgs_13multiversx_sc5types7managed5basic14managed_buffer13ManagedBufferB1e_EINtNtNtNtB4Q_13contract_base8wrappers10serializer21ExitCodecErrorHandlerB1e_EECsazs3bHuZQb5_14blackbox_tests
FNDA:0,_RINvXININtCs9vgV5lU4rR1_15rs_liquid_xoxno6configsc_0pEINtB6_22UnstakeTokenAttributespENtNtNtCsjx1dcze9jAA_19multiversx_sc_codec6single6top_en9TopEncode24top_encode_or_handle_errppEB8_
FNDA:0,_RINvXININtCs9vgV5lU4rR1_15rs_liquid_xoxno6configsd_0pEINtB6_22UnstakeTokenAttributespENtNtNtCsjx1dcze9jAA_19multiversx_sc_codec6single6top_de9TopDecode24top_decode_or_handle_errppEB8_
FNDA:0,_RINvXININtCs9vgV5lU4rR1_15rs_liquid_xoxno6configse_0pEINtB6_22UnstakeTokenAttributespENtNtNtCsjx1dcze9jAA_19multiversx_sc_codec6single9nested_en12NestedEncode24dep_encode_or_handle_errppEB8_
FNDA:0,_RINvXININtCs9vgV5lU4rR1_15rs_liquid_xoxno6configsf_0pEINtB6_22UnstakeTokenAttributespENtNtNtCsjx1dcze9jAA_19multiversx_sc_codec6single9nested_de12NestedDecode24dep_decode_or_handle_errppEB8_
FNDA:0,_RNvXININtCs9vgV5lU4rR1_15rs_liquid_xoxno6configsb_0pEINtB5_22UnstakeTokenAttributespENtNtNtCsh3ejzyzYXgs_13multiversx_sc3abi8type_abi7TypeAbi9type_nameB7_
FNDA:0,_RINvXININtCs9vgV5lU4rR1_15rs_liquid_xoxno6configsb_0pEINtB6_22UnstakeTokenAttributespENtNtNtCsh3ejzyzYXgs_13multiversx_sc3abi8type_abi7TypeAbi25provide_type_descriptionspEB8_
FNDA:0,_RNvYpNtNtCs9vgV5lU4rR1_15rs_liquid_xoxno6config12ConfigModule17register_ls_tokenB7_
FNDA:0,_RNvYpNtNtCs9vgV5lU4rR1_15rs_liquid_xoxno6config12ConfigModule22register_unstake_tokenB7_
FNDA:0,_RNvYpNtNtCs9vgV5lU4rR1_15rs_liquid_xoxno6config12ConfigModule16set_state_activeB7_
FNDA:0,_RNvYpNtNtCs9vgV5lU4rR1_15rs_liquid_xoxno6config12ConfigModule18set_state_inactiveB7_
FNDA:0,_RNvYpNtNtCs9vgV5lU4rR1_15rs_liquid_xoxno6config12ConfigModule15is_state_activeB7_
FNDA:0,_RNvXININtCs9vgV5lU4rR1_15rs_liquid_xoxno6config0pEpNtB5_12ConfigModule5stateB7_
FNDA:0,_RNvXININtCs9vgV5lU4rR1_15rs_liquid_xoxno6config0pEpNtB5_12ConfigModule8ls_tokenB7_
FNDA:0,_RNvXININtCs9vgV5lU4rR1_15rs_liquid_xoxno6config0pEpNtB5_12ConfigModule10main_tokenB7_
FNDA:0,_RNvXININtCs9vgV5lU4rR1_15rs_liquid_xoxno6config0pEpNtB5_12ConfigModule15ls_token_supplyB7_
FNDA:0,_RNvXININtCs9vgV5lU4rR1_15rs_liquid_xoxno6config0pEpNtB5_12ConfigModule21virtual_xoxno_reserveB7_
FNDA:0,_RNvXININtCs9vgV5lU4rR1_15rs_liquid_xoxno6config0pEpNtB5_12ConfigModule13unstake_tokenB7_
FNDA:0,_RNvXININtCs9vgV5lU4rR1_15rs_liquid_xoxno6config0pEpNtB5_12ConfigModule20unstake_token_supplyB7_
FNDA:0,_RNvYpNtNtCs9vgV5lU4rR1_15rs_liquid_xoxno6config16EndpointWrappers22call_register_ls_tokenB7_
FNDA:0,_RNvYpNtNtCs9vgV5lU4rR1_15rs_liquid_xoxno6config16EndpointWrappers27call_register_unstake_tokenB7_
FNDA:0,_RNvYpNtNtCs9vgV5lU4rR1_15rs_liquid_xoxno6config16EndpointWrappers21call_set_state_activeB7_
FNDA:0,_RNvYpNtNtCs9vgV5lU4rR1_15rs_liquid_xoxno6config16EndpointWrappers23call_set_state_inactiveB7_
FNDA:0,_RNvYpNtNtCs9vgV5lU4rR1_15rs_liquid_xoxno6config16EndpointWrappers10call_stateB7_
FNDA:0,_RNvYpNtNtCs9vgV5lU4rR1_15rs_liquid_xoxno6config16EndpointWrappers13call_ls_tokenB7_
FNDA:0,_RNvYpNtNtCs9vgV5lU4rR1_15rs_liquid_xoxno6config16EndpointWrappers15call_main_tokenB7_
FNDA:0,_RNvYpNtNtCs9vgV5lU4rR1_15rs_liquid_xoxno6config16EndpointWrappers20call_ls_token_supplyB7_
FNDA:0,_RNvYpNtNtCs9vgV5lU4rR1_15rs_liquid_xoxno6config16EndpointWrappers26call_virtual_xoxno_reserveB7_
FNDA:0,_RNvYpNtNtCs9vgV5lU4rR1_15rs_liquid_xoxno6config16EndpointWrappers18call_unstake_tokenB7_
FNDA:0,_RNvYpNtNtCs9vgV5lU4rR1_15rs_liquid_xoxno6config16EndpointWrappers25call_unstake_token_supplyB7_
FNDA:0,_RNvYpNtNtCs9vgV5lU4rR1_15rs_liquid_xoxno6config16EndpointWrappers4callB7_
FNDA:0,_RNvYpNtNtCs9vgV5lU4rR1_15rs_liquid_xoxno6config16EndpointWrappers17callback_selectorB7_
FNDA:0,_RNvYpNtNtCs9vgV5lU4rR1_15rs_liquid_xoxno6config16EndpointWrappers8callbackB7_
FNDA:0,_RNvXs1_NtCs9vgV5lU4rR1_15rs_liquid_xoxno6configNtB5_11AbiProviderNtNtNtCsh3ejzyzYXgs_13multiversx_sc13contract_base21contract_abi_provider19ContractAbiProvider3abi
FNDA:0,_RNvXININtCs9vgV5lU4rR1_15rs_liquid_xoxno6configs7_0pEINtB5_11ContractObjpENtNtNtCsh3ejzyzYXgs_13multiversx_sc13contract_base17callable_contract16CallableContract4callB7_
FNDA:0,_RINvNtCs9vgV5lU4rR1_15rs_liquid_xoxno6config12contract_objpEB4_
FNDA:0,_RINvXs8_NtCs9vgV5lU4rR1_15rs_liquid_xoxno6configNtB6_15ContractBuilderNtNtNtCsh3ejzyzYXgs_13multiversx_sc13contract_base17callable_contract23CallableContractBuilder16new_contract_objpEB8_
FNDA:0,_RINvNtNtCs9vgV5lU4rR1_15rs_liquid_xoxno6config19___wasm__endpoints__17register_ls_tokenpEB6_
FNDA:0,_RINvNtNtCs9vgV5lU4rR1_15rs_liquid_xoxno6config19___wasm__endpoints__22register_unstake_tokenpEB6_
FNDA:0,_RINvNtNtCs9vgV5lU4rR1_15rs_liquid_xoxno6config19___wasm__endpoints__16set_state_activepEB6_
FNDA:0,_RINvNtNtCs9vgV5lU4rR1_15rs_liquid_xoxno6config19___wasm__endpoints__18set_state_inactivepEB6_
FNDA:0,_RINvNtNtCs9vgV5lU4rR1_15rs_liquid_xoxno6config19___wasm__endpoints__5statepEB6_
FNDA:0,_RINvNtNtCs9vgV5lU4rR1_15rs_liquid_xoxno6config19___wasm__endpoints__8ls_tokenpEB6_
FNDA:0,_RINvNtNtCs9vgV5lU4rR1_15rs_liquid_xoxno6config19___wasm__endpoints__10main_tokenpEB6_
FNDA:0,_RINvNtNtCs9vgV5lU4rR1_15rs_liquid_xoxno6config19___wasm__endpoints__15ls_token_supplypEB6_
FNDA:0,_RINvNtNtCs9vgV5lU4rR1_15rs_liquid_xoxno6config19___wasm__endpoints__21virtual_xoxno_reservepEB6_
FNDA:0,_RINvNtNtCs9vgV5lU4rR1_15rs_liquid_xoxno6config19___wasm__endpoints__13unstake_tokenpEB6_
FNDA:0,_RINvNtNtCs9vgV5lU4rR1_15rs_liquid_xoxno6config19___wasm__endpoints__20unstake_token_supplypEB6_
FNDA:0,_RINvYpNtNtCs9vgV5lU4rR1_15rs_liquid_xoxno6config10ProxyTrait17register_ls_tokenpppEB8_
FNDA:0,_RINvYpNtNtCs9vgV5lU4rR1_15rs_liquid_xoxno6config10ProxyTrait22register_unstake_tokenpppEB8_
FNDA:0,_RNvYpNtNtCs9vgV5lU4rR1_15rs_liquid_xoxno6config10ProxyTrait16set_state_activeB7_
FNDA:0,_RNvYpNtNtCs9vgV5lU4rR1_15rs_liquid_xoxno6config10ProxyTrait18set_state_inactiveB7_
FNDA:0,_RNvYpNtNtCs9vgV5lU4rR1_15rs_liquid_xoxno6config10ProxyTrait5stateB7_
FNDA:0,_RNvYpNtNtCs9vgV5lU4rR1_15rs_liquid_xoxno6config10ProxyTrait8ls_tokenB7_
FNDA:0,_RNvYpNtNtCs9vgV5lU4rR1_15rs_liquid_xoxno6config10ProxyTrait10main_tokenB7_
FNDA:0,_RNvYpNtNtCs9vgV5lU4rR1_15rs_liquid_xoxno6config10ProxyTrait15ls_token_supplyB7_
FNDA:0,_RNvYpNtNtCs9vgV5lU4rR1_15rs_liquid_xoxno6config10ProxyTrait21virtual_xoxno_reserveB7_
FNDA:0,_RNvYpNtNtCs9vgV5lU4rR1_15rs_liquid_xoxno6config10ProxyTrait13unstake_tokenB7_
FNDA:0,_RNvYpNtNtCs9vgV5lU4rR1_15rs_liquid_xoxno6config10ProxyTrait20unstake_token_supplyB7_
FNF:11
FNH:6
DA:9,0
DA:10,6
DA:18,57
DA:30,0
DA:31,0
DA:32,0
DA:33,0
DA:34,0
DA:35,0
DA:36,0
DA:37,0
DA:38,0
DA:49,0
DA:50,0
DA:51,0
DA:52,0
DA:53,0
DA:54,0
DA:55,0
DA:56,0
DA:57,0
DA:58,0
DA:63,12
DA:64,12
DA:69,1
DA:70,1
DA:74,32
DA:75,32
BRF:0
BRH:0
LF:31
LH:9
end_of_record
SF:/Users/mihaieremia/GitHub/rs-liquid-xoxno/src/contexts/base.rs
FN:23,_RNvMNtNtCs10KhxTnoMk3_15rs_liquid_xoxno8contexts4baseINtB2_12StorageCacheINtNtNtCsh3ejzyzYXgs_13multiversx_sc13contract_base22universal_contract_obj20UniversalContractObjINtNtNtNtCseXgWFdEnwTg_22multiversx_sc_scenario3api7impl_vh12vm_hooks_api10VMHooksApiNtNtB2N_9debug_api15DebugApiBackendEEE3newCsazs3bHuZQb5_14blackbox_tests
FN:40,_RNvXs_NtNtCs10KhxTnoMk3_15rs_liquid_xoxno8contexts4baseINtB4_12StorageCacheINtNtNtCsh3ejzyzYXgs_13multiversx_sc13contract_base22universal_contract_obj20UniversalContractObjINtNtNtNtCseXgWFdEnwTg_22multiversx_sc_scenario3api7impl_vh12vm_hooks_api10VMHooksApiNtNtB2P_9debug_api15DebugApiBackendEEENtNtNtCslGS7pEIChKc_4core3ops4drop4Drop4dropCsazs3bHuZQb5_14blackbox_tests
FN:23,_RNvMNtNtCs9vgV5lU4rR1_15rs_liquid_xoxno8contexts4baseINtB2_12StorageCachepE3newB6_
FN:40,_RNvXININtNtCs9vgV5lU4rR1_15rs_liquid_xoxno8contexts4bases_0pEINtB5_12StorageCachepENtNtNtCslGS7pEIChKc_4core3ops4drop4Drop4dropB9_
FNDA:32,_RNvMNtNtCs10KhxTnoMk3_15rs_liquid_xoxno8contexts4baseINtB2_12StorageCacheINtNtNtCsh3ejzyzYXgs_13multiversx_sc13contract_base22universal_contract_obj20UniversalContractObjINtNtNtNtCseXgWFdEnwTg_22multiversx_sc_scenario3api7impl_vh12vm_hooks_api10VMHooksApiNtNtB2N_9debug_api15DebugApiBackendEEE3newCsazs3bHuZQb5_14blackbox_tests
FNDA:32,_RNvXs_NtNtCs10KhxTnoMk3_15rs_liquid_xoxno8contexts4baseINtB4_12StorageCacheINtNtNtCsh3ejzyzYXgs_13multiversx_sc13contract_base22universal_contract_obj20UniversalContractObjINtNtNtNtCseXgWFdEnwTg_22multiversx_sc_scenario3api7impl_vh12vm_hooks_api10VMHooksApiNtNtB2P_9debug_api15DebugApiBackendEEENtNtNtCslGS7pEIChKc_4core3ops4drop4Drop4dropCsazs3bHuZQb5_14blackbox_tests
FNDA:0,_RNvMNtNtCs9vgV5lU4rR1_15rs_liquid_xoxno8contexts4baseINtB2_12StorageCachepE3newB6_
FNDA:0,_RNvXININtNtCs9vgV5lU4rR1_15rs_liquid_xoxno8contexts4bases_0pEINtB5_12StorageCachepENtNtNtCslGS7pEIChKc_4core3ops4drop4Drop4dropB9_
FNF:2
FNH:2
DA:23,32
DA:24,32
DA:25,32
DA:26,32
DA:27,32
DA:28,32
DA:29,32
DA:30,32
DA:31,32
DA:32,32
DA:33,32
DA:40,32
DA:41,32
DA:42,32
DA:43,32
DA:44,32
DA:45,32
DA:46,32
DA:47,32
DA:48,32
DA:49,32
BRF:0
BRH:0
LF:21
LH:21
end_of_record
SF:/Users/mihaieremia/GitHub/rs-liquid-xoxno/src/contexts/readonly.rs
FN:23,_RNvMNtNtCs10KhxTnoMk3_15rs_liquid_xoxno8contexts8readonlyINtB2_20ReadOnlyStorageCacheINtNtNtCsh3ejzyzYXgs_13multiversx_sc13contract_base22universal_contract_obj20UniversalContractObjINtNtNtNtCseXgWFdEnwTg_22multiversx_sc_scenario3api7impl_vh12vm_hooks_api10VMHooksApiNtNtB2Z_9debug_api15DebugApiBackendEEE3newCsazs3bHuZQb5_14blackbox_tests
FN:23,_RNvMNtNtCs9vgV5lU4rR1_15rs_liquid_xoxno8contexts8readonlyINtB2_20ReadOnlyStorageCachepE3newB6_
FNDA:0,_RNvMNtNtCs10KhxTnoMk3_15rs_liquid_xoxno8contexts8readonlyINtB2_20ReadOnlyStorageCacheINtNtNtCsh3ejzyzYXgs_13multiversx_sc13contract_base22universal_contract_obj20UniversalContractObjINtNtNtNtCseXgWFdEnwTg_22multiversx_sc_scenario3api7impl_vh12vm_hooks_api10VMHooksApiNtNtB2Z_9debug_api15DebugApiBackendEEE3newCsazs3bHuZQb5_14blackbox_tests
FNDA:0,_RNvMNtNtCs9vgV5lU4rR1_15rs_liquid_xoxno8contexts8readonlyINtB2_20ReadOnlyStorageCachepE3newB6_
FNF:1
FNH:0
DA:23,0
DA:24,0
DA:25,0
DA:26,0
DA:27,0
DA:28,0
DA:29,0
DA:30,0
DA:31,0
DA:32,0
DA:33,0
BRF:0
BRH:0
LF:11
LH:0
end_of_record
SF:/Users/mihaieremia/GitHub/rs-liquid-xoxno/src/events.rs
FN:48,_RNvXNtCs10KhxTnoMk3_15rs_liquid_xoxno6eventsINtNtNtCsh3ejzyzYXgs_13multiversx_sc13contract_base22universal_contract_obj20UniversalContractObjINtNtNtNtCseXgWFdEnwTg_22multiversx_sc_scenario3api7impl_vh12vm_hooks_api10VMHooksApiNtNtB2k_9debug_api15DebugApiBackendEENtB2_12EventsModule17add_rewards_eventCsazs3bHuZQb5_14blackbox_tests
FN:48,_RNvXNtCs10KhxTnoMk3_15rs_liquid_xoxno6eventsINtNtNtCsh3ejzyzYXgs_13multiversx_sc13contract_base22universal_contract_obj20UniversalContractObjINtNtNtNtCseXgWFdEnwTg_22multiversx_sc_scenario3api7impl_vh12vm_hooks_api10VMHooksApiNtNtB2k_9debug_api15DebugApiBackendEENtB2_12EventsModule19add_liquidity_eventCsazs3bHuZQb5_14blackbox_tests
FN:48,_RNvXNtCs10KhxTnoMk3_15rs_liquid_xoxno6eventsINtNtNtCsh3ejzyzYXgs_13multiversx_sc13contract_base22universal_contract_obj20UniversalContractObjINtNtNtNtCseXgWFdEnwTg_22multiversx_sc_scenario3api7impl_vh12vm_hooks_api10VMHooksApiNtNtB2k_9debug_api15DebugApiBackendEENtB2_12EventsModule22remove_liquidity_eventCsazs3bHuZQb5_14blackbox_tests
FN:59,_RNvYINtNtNtCsh3ejzyzYXgs_13multiversx_sc13contract_base22universal_contract_obj20UniversalContractObjINtNtNtNtCseXgWFdEnwTg_22multiversx_sc_scenario3api7impl_vh12vm_hooks_api10VMHooksApiNtNtB1G_9debug_api15DebugApiBackendEENtNtCs10KhxTnoMk3_15rs_liquid_xoxno6events12EventsModule19emit_delegate_eventCsazs3bHuZQb5_14blackbox_tests
FN:112,_RNvYINtNtNtCsh3ejzyzYXgs_13multiversx_sc13contract_base22universal_contract_obj20UniversalContractObjINtNtNtNtCseXgWFdEnwTg_22multiversx_sc_scenario3api7impl_vh12vm_hooks_api10VMHooksApiNtNtB1G_9debug_api15DebugApiBackendEENtNtCs10KhxTnoMk3_15rs_liquid_xoxno6events12EventsModule22emit_add_rewards_eventCsazs3bHuZQb5_14blackbox_tests
FN:85,_RNvYINtNtNtCsh3ejzyzYXgs_13multiversx_sc13contract_base22universal_contract_obj20UniversalContractObjINtNtNtNtCseXgWFdEnwTg_22multiversx_sc_scenario3api7impl_vh12vm_hooks_api10VMHooksApiNtNtB1G_9debug_api15DebugApiBackendEENtNtCs10KhxTnoMk3_15rs_liquid_xoxno6events12EventsModule27emit_remove_liquidity_eventCsazs3bHuZQb5_14blackbox_tests
FN:48,_RNvYINtNtNtCsh3ejzyzYXgs_13multiversx_sc13contract_base22universal_contract_obj20UniversalContractObjINtNtNtNtCseXgWFdEnwTg_22multiversx_sc_scenario3api7impl_vh12vm_hooks_api10VMHooksApiNtNtB1G_9debug_api15DebugApiBackendEENtNtCs10KhxTnoMk3_15rs_liquid_xoxno6events16EndpointWrappers17callback_selectorCsazs3bHuZQb5_14blackbox_tests
FN:48,_RNvYINtNtNtCsh3ejzyzYXgs_13multiversx_sc13contract_base22universal_contract_obj20UniversalContractObjINtNtNtNtCseXgWFdEnwTg_22multiversx_sc_scenario3api7impl_vh12vm_hooks_api10VMHooksApiNtNtB1G_9debug_api15DebugApiBackendEENtNtCs10KhxTnoMk3_15rs_liquid_xoxno6events16EndpointWrappers4callCsazs3bHuZQb5_14blackbox_tests
FN:48,_RNvYINtNtNtCsh3ejzyzYXgs_13multiversx_sc13contract_base22universal_contract_obj20UniversalContractObjINtNtNtNtCseXgWFdEnwTg_22multiversx_sc_scenario3api7impl_vh12vm_hooks_api10VMHooksApiNtNtB1G_9debug_api15DebugApiBackendEENtNtCs10KhxTnoMk3_15rs_liquid_xoxno6events16EndpointWrappers8callbackCsazs3bHuZQb5_14blackbox_tests
FN:36,_RINvXse_NtCs10KhxTnoMk3_15rs_liquid_xoxno6eventsINtB6_15AddRewardsEventINtNtNtNtCseXgWFdEnwTg_22multiversx_sc_scenario3api7impl_vh12vm_hooks_api10VMHooksApiNtNtB1c_9debug_api15DebugApiBackendEENtNtNtCsjx1dcze9jAA_19multiversx_sc_codec6single6top_en9TopEncode24top_encode_or_handle_errQINtNtNtNtNtCsh3ejzyzYXgs_13multiversx_sc5types7managed5basic14managed_buffer13ManagedBufferB17_EINtNtNtNtB4K_13contract_base8wrappers10serializer21ExitCodecErrorHandlerB17_EECsazs3bHuZQb5_14blackbox_tests
FN:21,_RINvXsi_NtCs10KhxTnoMk3_15rs_liquid_xoxno6eventsINtB6_20RemoveLiquidityEventINtNtNtNtCseXgWFdEnwTg_22multiversx_sc_scenario3api7impl_vh12vm_hooks_api10VMHooksApiNtNtB1h_9debug_api15DebugApiBackendEENtNtNtCsjx1dcze9jAA_19multiversx_sc_codec6single6top_en9TopEncode24top_encode_or_handle_errQINtNtNtNtNtCsh3ejzyzYXgs_13multiversx_sc5types7managed5basic14managed_buffer13ManagedBufferB1c_EINtNtNtNtB4P_13contract_base8wrappers10serializer21ExitCodecErrorHandlerB1c_EECsazs3bHuZQb5_14blackbox_tests
FN:7,_RINvXsm_NtCs10KhxTnoMk3_15rs_liquid_xoxno6eventsINtB6_17AddLiquidityEventINtNtNtNtCseXgWFdEnwTg_22multiversx_sc_scenario3api7impl_vh12vm_hooks_api10VMHooksApiNtNtB1e_9debug_api15DebugApiBackendEENtNtNtCsjx1dcze9jAA_19multiversx_sc_codec6single6top_en9TopEncode24top_encode_or_handle_errQINtNtNtNtNtCsh3ejzyzYXgs_13multiversx_sc5types7managed5basic14managed_buffer13ManagedBufferB19_EINtNtNtNtB4M_13contract_base8wrappers10serializer21ExitCodecErrorHandlerB19_EECsazs3bHuZQb5_14blackbox_tests
FN:7,_RINvXININtCs9vgV5lU4rR1_15rs_liquid_xoxno6eventssm_0pEINtB6_17AddLiquidityEventpENtNtNtCsjx1dcze9jAA_19multiversx_sc_codec6single6top_en9TopEncode24top_encode_or_handle_errppEB8_
FN:6,_RNvXININtCs9vgV5lU4rR1_15rs_liquid_xoxno6eventssl_0pEINtB5_17AddLiquidityEventpENtNtNtCsh3ejzyzYXgs_13multiversx_sc3abi8type_abi7TypeAbi9type_nameB7_
FN:6,_RINvXININtCs9vgV5lU4rR1_15rs_liquid_xoxno6eventssl_0pEINtB6_17AddLiquidityEventpENtNtNtCsh3ejzyzYXgs_13multiversx_sc3abi8type_abi7TypeAbi25provide_type_descriptionspEB8_
FN:21,_RINvXININtCs9vgV5lU4rR1_15rs_liquid_xoxno6eventssi_0pEINtB6_20RemoveLiquidityEventpENtNtNtCsjx1dcze9jAA_19multiversx_sc_codec6single6top_en9TopEncode24top_encode_or_handle_errppEB8_
FN:20,_RNvXININtCs9vgV5lU4rR1_15rs_liquid_xoxno6eventssh_0pEINtB5_20RemoveLiquidityEventpENtNtNtCsh3ejzyzYXgs_13multiversx_sc3abi8type_abi7TypeAbi9type_nameB7_
FN:20,_RINvXININtCs9vgV5lU4rR1_15rs_liquid_xoxno6eventssh_0pEINtB6_20RemoveLiquidityEventpENtNtNtCsh3ejzyzYXgs_13multiversx_sc3abi8type_abi7TypeAbi25provide_type_descriptionspEB8_
FN:36,_RINvXININtCs9vgV5lU4rR1_15rs_liquid_xoxno6eventsse_0pEINtB6_15AddRewardsEventpENtNtNtCsjx1dcze9jAA_19multiversx_sc_codec6single6top_en9TopEncode24top_encode_or_handle_errppEB8_
FN:35,_RNvXININtCs9vgV5lU4rR1_15rs_liquid_xoxno6eventssd_0pEINtB5_15AddRewardsEventpENtNtNtCsh3ejzyzYXgs_13multiversx_sc3abi8type_abi7TypeAbi9type_nameB7_
FN:35,_RINvXININtCs9vgV5lU4rR1_15rs_liquid_xoxno6eventssd_0pEINtB6_15AddRewardsEventpENtNtNtCsh3ejzyzYXgs_13multiversx_sc3abi8type_abi7TypeAbi25provide_type_descriptionspEB8_
FN:59,_RNvYpNtNtCs9vgV5lU4rR1_15rs_liquid_xoxno6events12EventsModule19emit_delegate_eventB7_
FN:85,_RNvYpNtNtCs9vgV5lU4rR1_15rs_liquid_xoxno6events12EventsModule27emit_remove_liquidity_eventB7_
FN:112,_RNvYpNtNtCs9vgV5lU4rR1_15rs_liquid_xoxno6events12EventsModule22emit_add_rewards_eventB7_
FN:48,_RNvXININtCs9vgV5lU4rR1_15rs_liquid_xoxno6events0pEpNtB5_12EventsModule19add_liquidity_eventB7_
FN:48,_RNvXININtCs9vgV5lU4rR1_15rs_liquid_xoxno6events0pEpNtB5_12EventsModule22remove_liquidity_eventB7_
FN:48,_RNvXININtCs9vgV5lU4rR1_15rs_liquid_xoxno6events0pEpNtB5_12EventsModule17add_rewards_eventB7_
FN:48,_RNvYpNtNtCs9vgV5lU4rR1_15rs_liquid_xoxno6events16EndpointWrappers4callB7_
FN:48,_RNvYpNtNtCs9vgV5lU4rR1_15rs_liquid_xoxno6events16EndpointWrappers17callback_selectorB7_
FN:48,_RNvYpNtNtCs9vgV5lU4rR1_15rs_liquid_xoxno6events16EndpointWrappers8callbackB7_
FN:48,_RNvXs1_NtCs9vgV5lU4rR1_15rs_liquid_xoxno6eventsNtB5_11AbiProviderNtNtNtCsh3ejzyzYXgs_13multiversx_sc13contract_base21contract_abi_provider19ContractAbiProvider3abi
FN:48,_RNvXININtCs9vgV5lU4rR1_15rs_liquid_xoxno6eventss9_0pEINtB5_11ContractObjpENtNtNtCsh3ejzyzYXgs_13multiversx_sc13contract_base17callable_contract16CallableContract4callB7_
FN:48,_RINvNtCs9vgV5lU4rR1_15rs_liquid_xoxno6events12contract_objpEB4_
FN:48,_RINvXsa_NtCs9vgV5lU4rR1_15rs_liquid_xoxno6eventsNtB6_15ContractBuilderNtNtNtCsh3ejzyzYXgs_13multiversx_sc13contract_base17callable_contract23CallableContractBuilder16new_contract_objpEB8_
FNDA:6,_RNvXNtCs10KhxTnoMk3_15rs_liquid_xoxno6eventsINtNtNtCsh3ejzyzYXgs_13multiversx_sc13contract_base22universal_contract_obj20UniversalContractObjINtNtNtNtCseXgWFdEnwTg_22multiversx_sc_scenario3api7impl_vh12vm_hooks_api10VMHooksApiNtNtB2k_9debug_api15DebugApiBackendEENtB2_12EventsModule17add_rewards_eventCsazs3bHuZQb5_14blackbox_tests
FNDA:16,_RNvXNtCs10KhxTnoMk3_15rs_liquid_xoxno6eventsINtNtNtCsh3ejzyzYXgs_13multiversx_sc13contract_base22universal_contract_obj20UniversalContractObjINtNtNtNtCseXgWFdEnwTg_22multiversx_sc_scenario3api7impl_vh12vm_hooks_api10VMHooksApiNtNtB2k_9debug_api15DebugApiBackendEENtB2_12EventsModule19add_liquidity_eventCsazs3bHuZQb5_14blackbox_tests
FNDA:6,_RNvXNtCs10KhxTnoMk3_15rs_liquid_xoxno6eventsINtNtNtCsh3ejzyzYXgs_13multiversx_sc13contract_base22universal_contract_obj20UniversalContractObjINtNtNtNtCseXgWFdEnwTg_22multiversx_sc_scenario3api7impl_vh12vm_hooks_api10VMHooksApiNtNtB2k_9debug_api15DebugApiBackendEENtB2_12EventsModule22remove_liquidity_eventCsazs3bHuZQb5_14blackbox_tests
FNDA:16,_RNvYINtNtNtCsh3ejzyzYXgs_13multiversx_sc13contract_base22universal_contract_obj20UniversalContractObjINtNtNtNtCseXgWFdEnwTg_22multiversx_sc_scenario3api7impl_vh12vm_hooks_api10VMHooksApiNtNtB1G_9debug_api15DebugApiBackendEENtNtCs10KhxTnoMk3_15rs_liquid_xoxno6events12EventsModule19emit_delegate_eventCsazs3bHuZQb5_14blackbox_tests
FNDA:6,_RNvYINtNtNtCsh3ejzyzYXgs_13multiversx_sc13contract_base22universal_contract_obj20UniversalContractObjINtNtNtNtCseXgWFdEnwTg_22multiversx_sc_scenario3api7impl_vh12vm_hooks_api10VMHooksApiNtNtB1G_9debug_api15DebugApiBackendEENtNtCs10KhxTnoMk3_15rs_liquid_xoxno6events12EventsModule22emit_add_rewards_eventCsazs3bHuZQb5_14blackbox_tests
FNDA:6,_RNvYINtNtNtCsh3ejzyzYXgs_13multiversx_sc13contract_base22universal_contract_obj20UniversalContractObjINtNtNtNtCseXgWFdEnwTg_22multiversx_sc_scenario3api7impl_vh12vm_hooks_api10VMHooksApiNtNtB1G_9debug_api15DebugApiBackendEENtNtCs10KhxTnoMk3_15rs_liquid_xoxno6events12EventsModule27emit_remove_liquidity_eventCsazs3bHuZQb5_14blackbox_tests
FNDA:0,_RNvYINtNtNtCsh3ejzyzYXgs_13multiversx_sc13contract_base22universal_contract_obj20UniversalContractObjINtNtNtNtCseXgWFdEnwTg_22multiversx_sc_scenario3api7impl_vh12vm_hooks_api10VMHooksApiNtNtB1G_9debug_api15DebugApiBackendEENtNtCs10KhxTnoMk3_15rs_liquid_xoxno6events16EndpointWrappers17callback_selectorCsazs3bHuZQb5_14blackbox_tests
FNDA:0,_RNvYINtNtNtCsh3ejzyzYXgs_13multiversx_sc13contract_base22universal_contract_obj20UniversalContractObjINtNtNtNtCseXgWFdEnwTg_22multiversx_sc_scenario3api7impl_vh12vm_hooks_api10VMHooksApiNtNtB1G_9debug_api15DebugApiBackendEENtNtCs10KhxTnoMk3_15rs_liquid_xoxno6events16EndpointWrappers4callCsazs3bHuZQb5_14blackbox_tests
FNDA:0,_RNvYINtNtNtCsh3ejzyzYXgs_13multiversx_sc13contract_base22universal_contract_obj20UniversalContractObjINtNtNtNtCseXgWFdEnwTg_22multiversx_sc_scenario3api7impl_vh12vm_hooks_api10VMHooksApiNtNtB1G_9debug_api15DebugApiBackendEENtNtCs10KhxTnoMk3_15rs_liquid_xoxno6events16EndpointWrappers8callbackCsazs3bHuZQb5_14blackbox_tests
FNDA:6,_RINvXse_NtCs10KhxTnoMk3_15rs_liquid_xoxno6eventsINtB6_15AddRewardsEventINtNtNtNtCseXgWFdEnwTg_22multiversx_sc_scenario3api7impl_vh12vm_hooks_api10VMHooksApiNtNtB1c_9debug_api15DebugApiBackendEENtNtNtCsjx1dcze9jAA_19multiversx_sc_codec6single6top_en9TopEncode24top_encode_or_handle_errQINtNtNtNtNtCsh3ejzyzYXgs_13multiversx_sc5types7managed5basic14managed_buffer13ManagedBufferB17_EINtNtNtNtB4K_13contract_base8wrappers10serializer21ExitCodecErrorHandlerB17_EECsazs3bHuZQb5_14blackbox_tests
FNDA:6,_RINvXsi_NtCs10KhxTnoMk3_15rs_liquid_xoxno6eventsINtB6_20RemoveLiquidityEventINtNtNtNtCseXgWFdEnwTg_22multiversx_sc_scenario3api7impl_vh12vm_hooks_api10VMHooksApiNtNtB1h_9debug_api15DebugApiBackendEENtNtNtCsjx1dcze9jAA_19multiversx_sc_codec6single6top_en9TopEncode24top_encode_or_handle_errQINtNtNtNtNtCsh3ejzyzYXgs_13multiversx_sc5types7managed5basic14managed_buffer13ManagedBufferB1c_EINtNtNtNtB4P_13contract_base8wrappers10serializer21ExitCodecErrorHandlerB1c_EECsazs3bHuZQb5_14blackbox_tests
FNDA:16,_RINvXsm_NtCs10KhxTnoMk3_15rs_liquid_xoxno6eventsINtB6_17AddLiquidityEventINtNtNtNtCseXgWFdEnwTg_22multiversx_sc_scenario3api7impl_vh12vm_hooks_api10VMHooksApiNtNtB1e_9debug_api15DebugApiBackendEENtNtNtCsjx1dcze9jAA_19multiversx_sc_codec6single6top_en9TopEncode24top_encode_or_handle_errQINtNtNtNtNtCsh3ejzyzYXgs_13multiversx_sc5types7managed5basic14managed_buffer13ManagedBufferB19_EINtNtNtNtB4M_13contract_base8wrappers10serializer21ExitCodecErrorHandlerB19_EECsazs3bHuZQb5_14blackbox_tests
FNDA:0,_RINvXININtCs9vgV5lU4rR1_15rs_liquid_xoxno6eventssm_0pEINtB6_17AddLiquidityEventpENtNtNtCsjx1dcze9jAA_19multiversx_sc_codec6single6top_en9TopEncode24top_encode_or_handle_errppEB8_
FNDA:0,_RNvXININtCs9vgV5lU4rR1_15rs_liquid_xoxno6eventssl_0pEINtB5_17AddLiquidityEventpENtNtNtCsh3ejzyzYXgs_13multiversx_sc3abi8type_abi7TypeAbi9type_nameB7_
FNDA:0,_RINvXININtCs9vgV5lU4rR1_15rs_liquid_xoxno6eventssl_0pEINtB6_17AddLiquidityEventpENtNtNtCsh3ejzyzYXgs_13multiversx_sc3abi8type_abi7TypeAbi25provide_type_descriptionspEB8_
FNDA:0,_RINvXININtCs9vgV5lU4rR1_15rs_liquid_xoxno6eventssi_0pEINtB6_20RemoveLiquidityEventpENtNtNtCsjx1dcze9jAA_19multiversx_sc_codec6single6top_en9TopEncode24top_encode_or_handle_errppEB8_
FNDA:0,_RNvXININtCs9vgV5lU4rR1_15rs_liquid_xoxno6eventssh_0pEINtB5_20RemoveLiquidityEventpENtNtNtCsh3ejzyzYXgs_13multiversx_sc3abi8type_abi7TypeAbi9type_nameB7_
FNDA:0,_RINvXININtCs9vgV5lU4rR1_15rs_liquid_xoxno6eventssh_0pEINtB6_20RemoveLiquidityEventpENtNtNtCsh3ejzyzYXgs_13multiversx_sc3abi8type_abi7TypeAbi25provide_type_descriptionspEB8_
FNDA:0,_RINvXININtCs9vgV5lU4rR1_15rs_liquid_xoxno6eventsse_0pEINtB6_15AddRewardsEventpENtNtNtCsjx1dcze9jAA_19multiversx_sc_codec6single6top_en9TopEncode24top_encode_or_handle_errppEB8_
FNDA:0,_RNvXININtCs9vgV5lU4rR1_15rs_liquid_xoxno6eventssd_0pEINtB5_15AddRewardsEventpENtNtNtCsh3ejzyzYXgs_13multiversx_sc3abi8type_abi7TypeAbi9type_nameB7_
FNDA:0,_RINvXININtCs9vgV5lU4rR1_15rs_liquid_xoxno6eventssd_0pEINtB6_15AddRewardsEventpENtNtNtCsh3ejzyzYXgs_13multiversx_sc3abi8type_abi7TypeAbi25provide_type_descriptionspEB8_
FNDA:0,_RNvYpNtNtCs9vgV5lU4rR1_15rs_liquid_xoxno6events12EventsModule19emit_delegate_eventB7_
FNDA:0,_RNvYpNtNtCs9vgV5lU4rR1_15rs_liquid_xoxno6events12EventsModule27emit_remove_liquidity_eventB7_
FNDA:0,_RNvYpNtNtCs9vgV5lU4rR1_15rs_liquid_xoxno6events12EventsModule22emit_add_rewards_eventB7_
FNDA:0,_RNvXININtCs9vgV5lU4rR1_15rs_liquid_xoxno6events0pEpNtB5_12EventsModule19add_liquidity_eventB7_
FNDA:0,_RNvXININtCs9vgV5lU4rR1_15rs_liquid_xoxno6events0pEpNtB5_12EventsModule22remove_liquidity_eventB7_
FNDA:0,_RNvXININtCs9vgV5lU4rR1_15rs_liquid_xoxno6events0pEpNtB5_12EventsModule17add_rewards_eventB7_
FNDA:0,_RNvYpNtNtCs9vgV5lU4rR1_15rs_liquid_xoxno6events16EndpointWrappers4callB7_
FNDA:0,_RNvYpNtNtCs9vgV5lU4rR1_15rs_liquid_xoxno6events16EndpointWrappers17callback_selectorB7_
FNDA:0,_RNvYpNtNtCs9vgV5lU4rR1_15rs_liquid_xoxno6events16EndpointWrappers8callbackB7_
FNDA:0,_RNvXs1_NtCs9vgV5lU4rR1_15rs_liquid_xoxno6eventsNtB5_11AbiProviderNtNtNtCsh3ejzyzYXgs_13multiversx_sc13contract_base21contract_abi_provider19ContractAbiProvider3abi
FNDA:0,_RNvXININtCs9vgV5lU4rR1_15rs_liquid_xoxno6eventss9_0pEINtB5_11ContractObjpENtNtNtCsh3ejzyzYXgs_13multiversx_sc13contract_base17callable_contract16CallableContract4callB7_
FNDA:0,_RINvNtCs9vgV5lU4rR1_15rs_liquid_xoxno6events12contract_objpEB4_
FNDA:0,_RINvXsa_NtCs9vgV5lU4rR1_15rs_liquid_xoxno6eventsNtB6_15ContractBuilderNtNtNtCsh3ejzyzYXgs_13multiversx_sc13contract_base17callable_contract23CallableContractBuilder16new_contract_objpEB8_
FNF:10
FNH:7
DA:6,0
DA:7,16
DA:20,0
DA:21,6
DA:35,0
DA:36,6
DA:48,0
DA:59,16
DA:60,16
DA:61,16
DA:62,16
DA:63,16
DA:64,16
DA:65,16
DA:66,16
DA:67,16
DA:68,16
DA:69,16
DA:70,16
DA:71,16
DA:72,16
DA:73,16
DA:74,16
DA:75,16
DA:76,16
DA:85,6
DA:86,6
DA:87,6
DA:88,6
DA:89,6
DA:90,6
DA:91,6
DA:92,6
DA:93,6
DA:94,6
DA:95,6
DA:96,6
DA:97,6
DA:98,6
DA:99,6
DA:100,6
DA:101,6
DA:102,6
DA:103,6
DA:104,6
DA:112,6
DA:113,6
DA:114,6
DA:115,6
DA:116,6
DA:117,6
DA:118,6
DA:119,6
DA:120,6
DA:121,6
DA:122,6
DA:123,6
DA:124,6
DA:125,6
DA:126,6
DA:127,6
DA:128,6
BRF:0
BRH:0
LF:62
LH:59
end_of_record
SF:/Users/mihaieremia/GitHub/rs-liquid-xoxno/src/lib.rs
FN:161,_RNvYINtNtNtCsh3ejzyzYXgs_13multiversx_sc13contract_base22universal_contract_obj20UniversalContractObjINtNtNtNtCseXgWFdEnwTg_22multiversx_sc_scenario3api7impl_vh12vm_hooks_api10VMHooksApiNtNtB1G_9debug_api15DebugApiBackendEENtCs10KhxTnoMk3_15rs_liquid_xoxno13RsLiquidXoxno11add_rewardsCsazs3bHuZQb5_14blackbox_tests
FN:69,_RNvYINtNtNtCsh3ejzyzYXgs_13multiversx_sc13contract_base22universal_contract_obj20UniversalContractObjINtNtNtNtCseXgWFdEnwTg_22multiversx_sc_scenario3api7impl_vh12vm_hooks_api10VMHooksApiNtNtB1G_9debug_api15DebugApiBackendEENtCs10KhxTnoMk3_15rs_liquid_xoxno13RsLiquidXoxno11un_delegateCsazs3bHuZQb5_14blackbox_tests
FN:193,_RNvYINtNtNtCsh3ejzyzYXgs_13multiversx_sc13contract_base22universal_contract_obj20UniversalContractObjINtNtNtNtCseXgWFdEnwTg_22multiversx_sc_scenario3api7impl_vh12vm_hooks_api10VMHooksApiNtNtB1G_9debug_api15DebugApiBackendEENtCs10KhxTnoMk3_15rs_liquid_xoxno13RsLiquidXoxno17get_exchange_rateCsazs3bHuZQb5_14blackbox_tests
FN:181,_RNvYINtNtNtCsh3ejzyzYXgs_13multiversx_sc13contract_base22universal_contract_obj20UniversalContractObjINtNtNtNtCseXgWFdEnwTg_22multiversx_sc_scenario3api7impl_vh12vm_hooks_api10VMHooksApiNtNtB1G_9debug_api15DebugApiBackendEENtCs10KhxTnoMk3_15rs_liquid_xoxno13RsLiquidXoxno25get_ls_value_for_positionCsazs3bHuZQb5_14blackbox_tests
FN:187,_RNvYINtNtNtCsh3ejzyzYXgs_13multiversx_sc13contract_base22universal_contract_obj20UniversalContractObjINtNtNtNtCseXgWFdEnwTg_22multiversx_sc_scenario3api7impl_vh12vm_hooks_api10VMHooksApiNtNtB1G_9debug_api15DebugApiBackendEENtCs10KhxTnoMk3_15rs_liquid_xoxno13RsLiquidXoxno26get_ls_amount_for_positionCsazs3bHuZQb5_14blackbox_tests
FN:28,_RNvYINtNtNtCsh3ejzyzYXgs_13multiversx_sc13contract_base22universal_contract_obj20UniversalContractObjINtNtNtNtCseXgWFdEnwTg_22multiversx_sc_scenario3api7impl_vh12vm_hooks_api10VMHooksApiNtNtB1G_9debug_api15DebugApiBackendEENtCs10KhxTnoMk3_15rs_liquid_xoxno13RsLiquidXoxno4initCsazs3bHuZQb5_14blackbox_tests
FN:37,_RNvYINtNtNtCsh3ejzyzYXgs_13multiversx_sc13contract_base22universal_contract_obj20UniversalContractObjINtNtNtNtCseXgWFdEnwTg_22multiversx_sc_scenario3api7impl_vh12vm_hooks_api10VMHooksApiNtNtB1G_9debug_api15DebugApiBackendEENtCs10KhxTnoMk3_15rs_liquid_xoxno13RsLiquidXoxno8delegateCsazs3bHuZQb5_14blackbox_tests
FN:115,_RNvYINtNtNtCsh3ejzyzYXgs_13multiversx_sc13contract_base22universal_contract_obj20UniversalContractObjINtNtNtNtCseXgWFdEnwTg_22multiversx_sc_scenario3api7impl_vh12vm_hooks_api10VMHooksApiNtNtB1G_9debug_api15DebugApiBackendEENtCs10KhxTnoMk3_15rs_liquid_xoxno13RsLiquidXoxno8withdrawCsazs3bHuZQb5_14blackbox_tests
FN:18,_RNvYINtNtNtCsh3ejzyzYXgs_13multiversx_sc13contract_base22universal_contract_obj20UniversalContractObjINtNtNtNtCseXgWFdEnwTg_22multiversx_sc_scenario3api7impl_vh12vm_hooks_api10VMHooksApiNtNtB1G_9debug_api15DebugApiBackendEENtCs10KhxTnoMk3_15rs_liquid_xoxno16EndpointWrappers12call_upgradeCsazs3bHuZQb5_14blackbox_tests
FN:18,_RNvYINtNtNtCsh3ejzyzYXgs_13multiversx_sc13contract_base22universal_contract_obj20UniversalContractObjINtNtNtNtCseXgWFdEnwTg_22multiversx_sc_scenario3api7impl_vh12vm_hooks_api10VMHooksApiNtNtB1G_9debug_api15DebugApiBackendEENtCs10KhxTnoMk3_15rs_liquid_xoxno16EndpointWrappers13call_delegateCsazs3bHuZQb5_14blackbox_tests
FN:18,_RNvYINtNtNtCsh3ejzyzYXgs_13multiversx_sc13contract_base22universal_contract_obj20UniversalContractObjINtNtNtNtCseXgWFdEnwTg_22multiversx_sc_scenario3api7impl_vh12vm_hooks_api10VMHooksApiNtNtB1G_9debug_api15DebugApiBackendEENtCs10KhxTnoMk3_15rs_liquid_xoxno16EndpointWrappers13call_withdrawCsazs3bHuZQb5_14blackbox_tests
FN:18,_RNvYINtNtNtCsh3ejzyzYXgs_13multiversx_sc13contract_base22universal_contract_obj20UniversalContractObjINtNtNtNtCseXgWFdEnwTg_22multiversx_sc_scenario3api7impl_vh12vm_hooks_api10VMHooksApiNtNtB1G_9debug_api15DebugApiBackendEENtCs10KhxTnoMk3_15rs_liquid_xoxno16EndpointWrappers16call_add_rewardsCsazs3bHuZQb5_14blackbox_tests
FN:18,_RNvYINtNtNtCsh3ejzyzYXgs_13multiversx_sc13contract_base22universal_contract_obj20UniversalContractObjINtNtNtNtCseXgWFdEnwTg_22multiversx_sc_scenario3api7impl_vh12vm_hooks_api10VMHooksApiNtNtB1G_9debug_api15DebugApiBackendEENtCs10KhxTnoMk3_15rs_liquid_xoxno16EndpointWrappers16call_un_delegateCsazs3bHuZQb5_14blackbox_tests
FN:18,_RNvYINtNtNtCsh3ejzyzYXgs_13multiversx_sc13contract_base22universal_contract_obj20UniversalContractObjINtNtNtNtCseXgWFdEnwTg_22multiversx_sc_scenario3api7impl_vh12vm_hooks_api10VMHooksApiNtNtB1G_9debug_api15DebugApiBackendEENtCs10KhxTnoMk3_15rs_liquid_xoxno16EndpointWrappers17callback_selectorCsazs3bHuZQb5_14blackbox_tests
FN:18,_RNvYINtNtNtCsh3ejzyzYXgs_13multiversx_sc13contract_base22universal_contract_obj20UniversalContractObjINtNtNtNtCseXgWFdEnwTg_22multiversx_sc_scenario3api7impl_vh12vm_hooks_api10VMHooksApiNtNtB1G_9debug_api15DebugApiBackendEENtCs10KhxTnoMk3_15rs_liquid_xoxno16EndpointWrappers22call_get_exchange_rateCsazs3bHuZQb5_14blackbox_tests
FN:18,_RNvYINtNtNtCsh3ejzyzYXgs_13multiversx_sc13contract_base22universal_contract_obj20UniversalContractObjINtNtNtNtCseXgWFdEnwTg_22multiversx_sc_scenario3api7impl_vh12vm_hooks_api10VMHooksApiNtNtB1G_9debug_api15DebugApiBackendEENtCs10KhxTnoMk3_15rs_liquid_xoxno16EndpointWrappers30call_get_ls_value_for_positionCsazs3bHuZQb5_14blackbox_tests
FN:18,_RNvYINtNtNtCsh3ejzyzYXgs_13multiversx_sc13contract_base22universal_contract_obj20UniversalContractObjINtNtNtNtCseXgWFdEnwTg_22multiversx_sc_scenario3api7impl_vh12vm_hooks_api10VMHooksApiNtNtB1G_9debug_api15DebugApiBackendEENtCs10KhxTnoMk3_15rs_liquid_xoxno16EndpointWrappers31call_get_ls_amount_for_positionCsazs3bHuZQb5_14blackbox_tests
FN:18,_RNvYINtNtNtCsh3ejzyzYXgs_13multiversx_sc13contract_base22universal_contract_obj20UniversalContractObjINtNtNtNtCseXgWFdEnwTg_22multiversx_sc_scenario3api7impl_vh12vm_hooks_api10VMHooksApiNtNtB1G_9debug_api15DebugApiBackendEENtCs10KhxTnoMk3_15rs_liquid_xoxno16EndpointWrappers4callCsazs3bHuZQb5_14blackbox_tests
FN:18,_RNvYINtNtNtCsh3ejzyzYXgs_13multiversx_sc13contract_base22universal_contract_obj20UniversalContractObjINtNtNtNtCseXgWFdEnwTg_22multiversx_sc_scenario3api7impl_vh12vm_hooks_api10VMHooksApiNtNtB1G_9debug_api15DebugApiBackendEENtCs10KhxTnoMk3_15rs_liquid_xoxno16EndpointWrappers8callbackCsazs3bHuZQb5_14blackbox_tests
FN:18,_RNvYINtNtNtCsh3ejzyzYXgs_13multiversx_sc13contract_base22universal_contract_obj20UniversalContractObjINtNtNtNtCseXgWFdEnwTg_22multiversx_sc_scenario3api7impl_vh12vm_hooks_api10VMHooksApiNtNtB1G_9debug_api15DebugApiBackendEENtCs10KhxTnoMk3_15rs_liquid_xoxno16EndpointWrappers9call_initCsazs3bHuZQb5_14blackbox_tests
FN:18,_RINvCs10KhxTnoMk3_15rs_liquid_xoxno12contract_objINtNtNtNtCseXgWFdEnwTg_22multiversx_sc_scenario3api7impl_vh12vm_hooks_api10VMHooksApiNtNtBQ_9debug_api15DebugApiBackendEECsazs3bHuZQb5_14blackbox_tests
FN:18,_RINvXsg_Cs10KhxTnoMk3_15rs_liquid_xoxnoNtB6_15ContractBuilderNtNtNtCsh3ejzyzYXgs_13multiversx_sc13contract_base17callable_contract23CallableContractBuilder16new_contract_objINtNtNtNtCseXgWFdEnwTg_22multiversx_sc_scenario3api7impl_vh12vm_hooks_api10VMHooksApiNtNtB2Q_9debug_api15DebugApiBackendEECsazs3bHuZQb5_14blackbox_tests
FN:18,_RNvXsf_Cs10KhxTnoMk3_15rs_liquid_xoxnoINtB5_11ContractObjINtNtNtNtCseXgWFdEnwTg_22multiversx_sc_scenario3api7impl_vh12vm_hooks_api10VMHooksApiNtNtBY_9debug_api15DebugApiBackendEENtNtNtCsh3ejzyzYXgs_13multiversx_sc13contract_base17callable_contract16CallableContract4callCsazs3bHuZQb5_14blackbox_tests
FN:28,_RNvYpNtCs9vgV5lU4rR1_15rs_liquid_xoxno13RsLiquidXoxno4initB5_
FN:37,_RNvYpNtCs9vgV5lU4rR1_15rs_liquid_xoxno13RsLiquidXoxno8delegateB5_
FN:69,_RNvYpNtCs9vgV5lU4rR1_15rs_liquid_xoxno13RsLiquidXoxno11un_delegateB5_
FN:115,_RNvYpNtCs9vgV5lU4rR1_15rs_liquid_xoxno13RsLiquidXoxno8withdrawB5_
FN:161,_RNvYpNtCs9vgV5lU4rR1_15rs_liquid_xoxno13RsLiquidXoxno11add_rewardsB5_
FN:181,_RNvYpNtCs9vgV5lU4rR1_15rs_liquid_xoxno13RsLiquidXoxno25get_ls_value_for_positionB5_
FN:187,_RNvYpNtCs9vgV5lU4rR1_15rs_liquid_xoxno13RsLiquidXoxno26get_ls_amount_for_positionB5_
FN:193,_RNvYpNtCs9vgV5lU4rR1_15rs_liquid_xoxno13RsLiquidXoxno17get_exchange_rateB5_
FN:18,_RNvYpNtCs9vgV5lU4rR1_15rs_liquid_xoxno16EndpointWrappers9call_initB5_
FN:18,_RNvYpNtCs9vgV5lU4rR1_15rs_liquid_xoxno16EndpointWrappers12call_upgradeB5_
FN:18,_RNvYpNtCs9vgV5lU4rR1_15rs_liquid_xoxno16EndpointWrappers13call_delegateB5_
FN:18,_RNvYpNtCs9vgV5lU4rR1_15rs_liquid_xoxno16EndpointWrappers16call_un_delegateB5_
FN:18,_RNvYpNtCs9vgV5lU4rR1_15rs_liquid_xoxno16EndpointWrappers13call_withdrawB5_
FN:18,_RNvYpNtCs9vgV5lU4rR1_15rs_liquid_xoxno16EndpointWrappers16call_add_rewardsB5_
FN:18,_RNvYpNtCs9vgV5lU4rR1_15rs_liquid_xoxno16EndpointWrappers30call_get_ls_value_for_positionB5_
FN:18,_RNvYpNtCs9vgV5lU4rR1_15rs_liquid_xoxno16EndpointWrappers31call_get_ls_amount_for_positionB5_
FN:18,_RNvYpNtCs9vgV5lU4rR1_15rs_liquid_xoxno16EndpointWrappers22call_get_exchange_rateB5_
FN:18,_RNvYpNtCs9vgV5lU4rR1_15rs_liquid_xoxno16EndpointWrappers4callB5_
FN:18,_RNvYpNtCs9vgV5lU4rR1_15rs_liquid_xoxno16EndpointWrappers17callback_selectorB5_
FN:18,_RNvYpNtCs9vgV5lU4rR1_15rs_liquid_xoxno16EndpointWrappers8callbackB5_
FN:18,_RNvXs1_Cs9vgV5lU4rR1_15rs_liquid_xoxnoNtB5_11AbiProviderNtNtNtCsh3ejzyzYXgs_13multiversx_sc13contract_base21contract_abi_provider19ContractAbiProvider3abi
FN:18,_RNvXINICs9vgV5lU4rR1_15rs_liquid_xoxnosf_0pEINtB5_11ContractObjpENtNtNtCsh3ejzyzYXgs_13multiversx_sc13contract_base17callable_contract16CallableContract4callB5_
FN:18,_RINvCs9vgV5lU4rR1_15rs_liquid_xoxno12contract_objpEB2_
FN:18,_RINvXsg_Cs9vgV5lU4rR1_15rs_liquid_xoxnoNtB6_15ContractBuilderNtNtNtCsh3ejzyzYXgs_13multiversx_sc13contract_base17callable_contract23CallableContractBuilder16new_contract_objpEB6_
FN:18,_RINvNtCs9vgV5lU4rR1_15rs_liquid_xoxno19___wasm__endpoints__4initpEB4_
FN:18,_RINvNtCs9vgV5lU4rR1_15rs_liquid_xoxno19___wasm__endpoints__7upgradepEB4_
FN:18,_RINvNtCs9vgV5lU4rR1_15rs_liquid_xoxno19___wasm__endpoints__8delegatepEB4_
FN:18,_RINvNtCs9vgV5lU4rR1_15rs_liquid_xoxno19___wasm__endpoints__11un_delegatepEB4_
FN:18,_RINvNtCs9vgV5lU4rR1_15rs_liquid_xoxno19___wasm__endpoints__8withdrawpEB4_
FN:18,_RINvNtCs9vgV5lU4rR1_15rs_liquid_xoxno19___wasm__endpoints__11add_rewardspEB4_
FN:18,_RINvNtCs9vgV5lU4rR1_15rs_liquid_xoxno19___wasm__endpoints__25get_ls_value_for_positionpEB4_
FN:18,_RINvNtCs9vgV5lU4rR1_15rs_liquid_xoxno19___wasm__endpoints__26get_ls_amount_for_positionpEB4_
FN:18,_RINvNtCs9vgV5lU4rR1_15rs_liquid_xoxno19___wasm__endpoints__17get_exchange_ratepEB4_
FN:18,_RINvNtCs9vgV5lU4rR1_15rs_liquid_xoxno19___wasm__endpoints__8callBackpEB4_
FN:18,_RINvYpNtCs9vgV5lU4rR1_15rs_liquid_xoxno10ProxyTrait4initpEB6_
FN:18,_RNvYpNtCs9vgV5lU4rR1_15rs_liquid_xoxno10ProxyTrait7upgradeB5_
FN:18,_RINvYpNtCs9vgV5lU4rR1_15rs_liquid_xoxno10ProxyTrait8delegatepEB6_
FN:18,_RNvYpNtCs9vgV5lU4rR1_15rs_liquid_xoxno10ProxyTrait11un_delegateB5_
FN:18,_RNvYpNtCs9vgV5lU4rR1_15rs_liquid_xoxno10ProxyTrait8withdrawB5_
FN:18,_RNvYpNtCs9vgV5lU4rR1_15rs_liquid_xoxno10ProxyTrait11add_rewardsB5_
FN:18,_RINvYpNtCs9vgV5lU4rR1_15rs_liquid_xoxno10ProxyTrait25get_ls_value_for_positionpEB6_
FN:18,_RINvYpNtCs9vgV5lU4rR1_15rs_liquid_xoxno10ProxyTrait26get_ls_amount_for_positionpEB6_
FN:18,_RNvYpNtCs9vgV5lU4rR1_15rs_liquid_xoxno10ProxyTrait17get_exchange_rateB5_
FN:18,_RNvXINICs9vgV5lU4rR1_15rs_liquid_xoxnosh_0pEINtB5_5ProxypENtNtNtCsh3ejzyzYXgs_13multiversx_sc13contract_base14proxy_obj_base12ProxyObjBase19extract_opt_addressB5_
FN:18,_RNvXINICs9vgV5lU4rR1_15rs_liquid_xoxnosh_0pEINtB5_5ProxypENtNtNtCsh3ejzyzYXgs_13multiversx_sc13contract_base14proxy_obj_base12ProxyObjBase16extract_proxy_toB5_
FN:18,_RNvXINICs9vgV5lU4rR1_15rs_liquid_xoxnosi_0pEINtB5_5ProxypENtNtNtCsh3ejzyzYXgs_13multiversx_sc13contract_base14proxy_obj_base11ProxyObjNew13new_proxy_objB5_
FN:18,_RNvXINICs9vgV5lU4rR1_15rs_liquid_xoxnosi_0pEINtB5_5ProxypENtNtNtCsh3ejzyzYXgs_13multiversx_sc13contract_base14proxy_obj_base11ProxyObjNew8contractB5_
FN:18,_RNvXINICs9vgV5lU4rR1_15rs_liquid_xoxnosj_0pEINtB5_7ProxyTopENtNtNtCsh3ejzyzYXgs_13multiversx_sc13contract_base14proxy_obj_base12ProxyObjBase19extract_opt_addressB5_
FN:18,_RNvXINICs9vgV5lU4rR1_15rs_liquid_xoxnosj_0pEINtB5_7ProxyTopENtNtNtCsh3ejzyzYXgs_13multiversx_sc13contract_base14proxy_obj_base12ProxyObjBase15extract_addressB5_
FN:18,_RNvXINICs9vgV5lU4rR1_15rs_liquid_xoxnosj_0pEINtB5_7ProxyTopENtNtNtCsh3ejzyzYXgs_13multiversx_sc13contract_base14proxy_obj_base12ProxyObjBase16extract_proxy_toB5_
FNDA:6,_RNvYINtNtNtCsh3ejzyzYXgs_13multiversx_sc13contract_base22universal_contract_obj20UniversalContractObjINtNtNtNtCseXgWFdEnwTg_22multiversx_sc_scenario3api7impl_vh12vm_hooks_api10VMHooksApiNtNtB1G_9debug_api15DebugApiBackendEENtCs10KhxTnoMk3_15rs_liquid_xoxno13RsLiquidXoxno11add_rewardsCsazs3bHuZQb5_14blackbox_tests
FNDA:7,_RNvYINtNtNtCsh3ejzyzYXgs_13multiversx_sc13contract_base22universal_contract_obj20UniversalContractObjINtNtNtNtCseXgWFdEnwTg_22multiversx_sc_scenario3api7impl_vh12vm_hooks_api10VMHooksApiNtNtB1G_9debug_api15DebugApiBackendEENtCs10KhxTnoMk3_15rs_liquid_xoxno13RsLiquidXoxno11un_delegateCsazs3bHuZQb5_14blackbox_tests
FNDA:0,_RNvYINtNtNtCsh3ejzyzYXgs_13multiversx_sc13contract_base22universal_contract_obj20UniversalContractObjINtNtNtNtCseXgWFdEnwTg_22multiversx_sc_scenario3api7impl_vh12vm_hooks_api10VMHooksApiNtNtB1G_9debug_api15DebugApiBackendEENtCs10KhxTnoMk3_15rs_liquid_xoxno13RsLiquidXoxno17get_exchange_rateCsazs3bHuZQb5_14blackbox_tests
FNDA:0,_RNvYINtNtNtCsh3ejzyzYXgs_13multiversx_sc13contract_base22universal_contract_obj20UniversalContractObjINtNtNtNtCseXgWFdEnwTg_22multiversx_sc_scenario3api7impl_vh12vm_hooks_api10VMHooksApiNtNtB1G_9debug_api15DebugApiBackendEENtCs10KhxTnoMk3_15rs_liquid_xoxno13RsLiquidXoxno25get_ls_value_for_positionCsazs3bHuZQb5_14blackbox_tests
FNDA:0,_RNvYINtNtNtCsh3ejzyzYXgs_13multiversx_sc13contract_base22universal_contract_obj20UniversalContractObjINtNtNtNtCseXgWFdEnwTg_22multiversx_sc_scenario3api7impl_vh12vm_hooks_api10VMHooksApiNtNtB1G_9debug_api15DebugApiBackendEENtCs10KhxTnoMk3_15rs_liquid_xoxno13RsLiquidXoxno26get_ls_amount_for_positionCsazs3bHuZQb5_14blackbox_tests
FNDA:0,_RNvYINtNtNtCsh3ejzyzYXgs_13multiversx_sc13contract_base22universal_contract_obj20UniversalContractObjINtNtNtNtCseXgWFdEnwTg_22multiversx_sc_scenario3api7impl_vh12vm_hooks_api10VMHooksApiNtNtB1G_9debug_api15DebugApiBackendEENtCs10KhxTnoMk3_15rs_liquid_xoxno13RsLiquidXoxno4initCsazs3bHuZQb5_14blackbox_tests
FNDA:17,_RNvYINtNtNtCsh3ejzyzYXgs_13multiversx_sc13contract_base22universal_contract_obj20UniversalContractObjINtNtNtNtCseXgWFdEnwTg_22multiversx_sc_scenario3api7impl_vh12vm_hooks_api10VMHooksApiNtNtB1G_9debug_api15DebugApiBackendEENtCs10KhxTnoMk3_15rs_liquid_xoxno13RsLiquidXoxno8delegateCsazs3bHuZQb5_14blackbox_tests
FNDA:2,_RNvYINtNtNtCsh3ejzyzYXgs_13multiversx_sc13contract_base22universal_contract_obj20UniversalContractObjINtNtNtNtCseXgWFdEnwTg_22multiversx_sc_scenario3api7impl_vh12vm_hooks_api10VMHooksApiNtNtB1G_9debug_api15DebugApiBackendEENtCs10KhxTnoMk3_15rs_liquid_xoxno13RsLiquidXoxno8withdrawCsazs3bHuZQb5_14blackbox_tests
FNDA:0,_RNvYINtNtNtCsh3ejzyzYXgs_13multiversx_sc13contract_base22universal_contract_obj20UniversalContractObjINtNtNtNtCseXgWFdEnwTg_22multiversx_sc_scenario3api7impl_vh12vm_hooks_api10VMHooksApiNtNtB1G_9debug_api15DebugApiBackendEENtCs10KhxTnoMk3_15rs_liquid_xoxno16EndpointWrappers12call_upgradeCsazs3bHuZQb5_14blackbox_tests
FNDA:17,_RNvYINtNtNtCsh3ejzyzYXgs_13multiversx_sc13contract_base22universal_contract_obj20UniversalContractObjINtNtNtNtCseXgWFdEnwTg_22multiversx_sc_scenario3api7impl_vh12vm_hooks_api10VMHooksApiNtNtB1G_9debug_api15DebugApiBackendEENtCs10KhxTnoMk3_15rs_liquid_xoxno16EndpointWrappers13call_delegateCsazs3bHuZQb5_14blackbox_tests
FNDA:2,_RNvYINtNtNtCsh3ejzyzYXgs_13multiversx_sc13contract_base22universal_contract_obj20UniversalContractObjINtNtNtNtCseXgWFdEnwTg_22multiversx_sc_scenario3api7impl_vh12vm_hooks_api10VMHooksApiNtNtB1G_9debug_api15DebugApiBackendEENtCs10KhxTnoMk3_15rs_liquid_xoxno16EndpointWrappers13call_withdrawCsazs3bHuZQb5_14blackbox_tests
FNDA:6,_RNvYINtNtNtCsh3ejzyzYXgs_13multiversx_sc13contract_base22universal_contract_obj20UniversalContractObjINtNtNtNtCseXgWFdEnwTg_22multiversx_sc_scenario3api7impl_vh12vm_hooks_api10VMHooksApiNtNtB1G_9debug_api15DebugApiBackendEENtCs10KhxTnoMk3_15rs_liquid_xoxno16EndpointWrappers16call_add_rewardsCsazs3bHuZQb5_14blackbox_tests
FNDA:7,_RNvYINtNtNtCsh3ejzyzYXgs_13multiversx_sc13contract_base22universal_contract_obj20UniversalContractObjINtNtNtNtCseXgWFdEnwTg_22multiversx_sc_scenario3api7impl_vh12vm_hooks_api10VMHooksApiNtNtB1G_9debug_api15DebugApiBackendEENtCs10KhxTnoMk3_15rs_liquid_xoxno16EndpointWrappers16call_un_delegateCsazs3bHuZQb5_14blackbox_tests
FNDA:0,_RNvYINtNtNtCsh3ejzyzYXgs_13multiversx_sc13contract_base22universal_contract_obj20UniversalContractObjINtNtNtNtCseXgWFdEnwTg_22multiversx_sc_scenario3api7impl_vh12vm_hooks_api10VMHooksApiNtNtB1G_9debug_api15DebugApiBackendEENtCs10KhxTnoMk3_15rs_liquid_xoxno16EndpointWrappers17callback_selectorCsazs3bHuZQb5_14blackbox_tests
FNDA:0,_RNvYINtNtNtCsh3ejzyzYXgs_13multiversx_sc13contract_base22universal_contract_obj20UniversalContractObjINtNtNtNtCseXgWFdEnwTg_22multiversx_sc_scenario3api7impl_vh12vm_hooks_api10VMHooksApiNtNtB1G_9debug_api15DebugApiBackendEENtCs10KhxTnoMk3_15rs_liquid_xoxno16EndpointWrappers22call_get_exchange_rateCsazs3bHuZQb5_14blackbox_tests
FNDA:0,_RNvYINtNtNtCsh3ejzyzYXgs_13multiversx_sc13contract_base22universal_contract_obj20UniversalContractObjINtNtNtNtCseXgWFdEnwTg_22multiversx_sc_scenario3api7impl_vh12vm_hooks_api10VMHooksApiNtNtB1G_9debug_api15DebugApiBackendEENtCs10KhxTnoMk3_15rs_liquid_xoxno16EndpointWrappers30call_get_ls_value_for_positionCsazs3bHuZQb5_14blackbox_tests
FNDA:0,_RNvYINtNtNtCsh3ejzyzYXgs_13multiversx_sc13contract_base22universal_contract_obj20UniversalContractObjINtNtNtNtCseXgWFdEnwTg_22multiversx_sc_scenario3api7impl_vh12vm_hooks_api10VMHooksApiNtNtB1G_9debug_api15DebugApiBackendEENtCs10KhxTnoMk3_15rs_liquid_xoxno16EndpointWrappers31call_get_ls_amount_for_positionCsazs3bHuZQb5_14blackbox_tests
FNDA:89,_RNvYINtNtNtCsh3ejzyzYXgs_13multiversx_sc13contract_base22universal_contract_obj20UniversalContractObjINtNtNtNtCseXgWFdEnwTg_22multiversx_sc_scenario3api7impl_vh12vm_hooks_api10VMHooksApiNtNtB1G_9debug_api15DebugApiBackendEENtCs10KhxTnoMk3_15rs_liquid_xoxno16EndpointWrappers4callCsazs3bHuZQb5_14blackbox_tests
FNDA:0,_RNvYINtNtNtCsh3ejzyzYXgs_13multiversx_sc13contract_base22universal_contract_obj20UniversalContractObjINtNtNtNtCseXgWFdEnwTg_22multiversx_sc_scenario3api7impl_vh12vm_hooks_api10VMHooksApiNtNtB1G_9debug_api15DebugApiBackendEENtCs10KhxTnoMk3_15rs_liquid_xoxno16EndpointWrappers8callbackCsazs3bHuZQb5_14blackbox_tests
FNDA:0,_RNvYINtNtNtCsh3ejzyzYXgs_13multiversx_sc13contract_base22universal_contract_obj20UniversalContractObjINtNtNtNtCseXgWFdEnwTg_22multiversx_sc_scenario3api7impl_vh12vm_hooks_api10VMHooksApiNtNtB1G_9debug_api15DebugApiBackendEENtCs10KhxTnoMk3_15rs_liquid_xoxno16EndpointWrappers9call_initCsazs3bHuZQb5_14blackbox_tests
FNDA:14,_RINvCs10KhxTnoMk3_15rs_liquid_xoxno12contract_objINtNtNtNtCseXgWFdEnwTg_22multiversx_sc_scenario3api7impl_vh12vm_hooks_api10VMHooksApiNtNtBQ_9debug_api15DebugApiBackendEECsazs3bHuZQb5_14blackbox_tests
FNDA:14,_RINvXsg_Cs10KhxTnoMk3_15rs_liquid_xoxnoNtB6_15ContractBuilderNtNtNtCsh3ejzyzYXgs_13multiversx_sc13contract_base17callable_contract23CallableContractBuilder16new_contract_objINtNtNtNtCseXgWFdEnwTg_22multiversx_sc_scenario3api7impl_vh12vm_hooks_api10VMHooksApiNtNtB2Q_9debug_api15DebugApiBackendEECsazs3bHuZQb5_14blackbox_tests
FNDA:89,_RNvXsf_Cs10KhxTnoMk3_15rs_liquid_xoxnoINtB5_11ContractObjINtNtNtNtCseXgWFdEnwTg_22multiversx_sc_scenario3api7impl_vh12vm_hooks_api10VMHooksApiNtNtBY_9debug_api15DebugApiBackendEENtNtNtCsh3ejzyzYXgs_13multiversx_sc13contract_base17callable_contract16CallableContract4callCsazs3bHuZQb5_14blackbox_tests
FNDA:0,_RNvYpNtCs9vgV5lU4rR1_15rs_liquid_xoxno13RsLiquidXoxno4initB5_
FNDA:0,_RNvYpNtCs9vgV5lU4rR1_15rs_liquid_xoxno13RsLiquidXoxno8delegateB5_
FNDA:0,_RNvYpNtCs9vgV5lU4rR1_15rs_liquid_xoxno13RsLiquidXoxno11un_delegateB5_
FNDA:0,_RNvYpNtCs9vgV5lU4rR1_15rs_liquid_xoxno13RsLiquidXoxno8withdrawB5_
FNDA:0,_RNvYpNtCs9vgV5lU4rR1_15rs_liquid_xoxno13RsLiquidXoxno11add_rewardsB5_
FNDA:0,_RNvYpNtCs9vgV5lU4rR1_15rs_liquid_xoxno13RsLiquidXoxno25get_ls_value_for_positionB5_
FNDA:0,_RNvYpNtCs9vgV5lU4rR1_15rs_liquid_xoxno13RsLiquidXoxno26get_ls_amount_for_positionB5_
FNDA:0,_RNvYpNtCs9vgV5lU4rR1_15rs_liquid_xoxno13RsLiquidXoxno17get_exchange_rateB5_
FNDA:0,_RNvYpNtCs9vgV5lU4rR1_15rs_liquid_xoxno16EndpointWrappers9call_initB5_
FNDA:0,_RNvYpNtCs9vgV5lU4rR1_15rs_liquid_xoxno16EndpointWrappers12call_upgradeB5_
FNDA:0,_RNvYpNtCs9vgV5lU4rR1_15rs_liquid_xoxno16EndpointWrappers13call_delegateB5_
FNDA:0,_RNvYpNtCs9vgV5lU4rR1_15rs_liquid_xoxno16EndpointWrappers16call_un_delegateB5_
FNDA:0,_RNvYpNtCs9vgV5lU4rR1_15rs_liquid_xoxno16EndpointWrappers13call_withdrawB5_
FNDA:0,_RNvYpNtCs9vgV5lU4rR1_15rs_liquid_xoxno16EndpointWrappers16call_add_rewardsB5_
FNDA:0,_RNvYpNtCs9vgV5lU4rR1_15rs_liquid_xoxno16EndpointWrappers30call_get_ls_value_for_positionB5_
FNDA:0,_RNvYpNtCs9vgV5lU4rR1_15rs_liquid_xoxno16EndpointWrappers31call_get_ls_amount_for_positionB5_
FNDA:0,_RNvYpNtCs9vgV5lU4rR1_15rs_liquid_xoxno16EndpointWrappers22call_get_exchange_rateB5_
FNDA:0,_RNvYpNtCs9vgV5lU4rR1_15rs_liquid_xoxno16EndpointWrappers4callB5_
FNDA:0,_RNvYpNtCs9vgV5lU4rR1_15rs_liquid_xoxno16EndpointWrappers17callback_selectorB5_
FNDA:0,_RNvYpNtCs9vgV5lU4rR1_15rs_liquid_xoxno16EndpointWrappers8callbackB5_
FNDA:0,_RNvXs1_Cs9vgV5lU4rR1_15rs_liquid_xoxnoNtB5_11AbiProviderNtNtNtCsh3ejzyzYXgs_13multiversx_sc13contract_base21contract_abi_provider19ContractAbiProvider3abi
FNDA:0,_RNvXINICs9vgV5lU4rR1_15rs_liquid_xoxnosf_0pEINtB5_11ContractObjpENtNtNtCsh3ejzyzYXgs_13multiversx_sc13contract_base17callable_contract16CallableContract4callB5_
FNDA:0,_RINvCs9vgV5lU4rR1_15rs_liquid_xoxno12contract_objpEB2_
FNDA:0,_RINvXsg_Cs9vgV5lU4rR1_15rs_liquid_xoxnoNtB6_15ContractBuilderNtNtNtCsh3ejzyzYXgs_13multiversx_sc13contract_base17callable_contract23CallableContractBuilder16new_contract_objpEB6_
FNDA:0,_RINvNtCs9vgV5lU4rR1_15rs_liquid_xoxno19___wasm__endpoints__4initpEB4_
FNDA:0,_RINvNtCs9vgV5lU4rR1_15rs_liquid_xoxno19___wasm__endpoints__7upgradepEB4_
FNDA:0,_RINvNtCs9vgV5lU4rR1_15rs_liquid_xoxno19___wasm__endpoints__8delegatepEB4_
FNDA:0,_RINvNtCs9vgV5lU4rR1_15rs_liquid_xoxno19___wasm__endpoints__11un_delegatepEB4_
FNDA:0,_RINvNtCs9vgV5lU4rR1_15rs_liquid_xoxno19___wasm__endpoints__8withdrawpEB4_
FNDA:0,_RINvNtCs9vgV5lU4rR1_15rs_liquid_xoxno19___wasm__endpoints__11add_rewardspEB4_
FNDA:0,_RINvNtCs9vgV5lU4rR1_15rs_liquid_xoxno19___wasm__endpoints__25get_ls_value_for_positionpEB4_
FNDA:0,_RINvNtCs9vgV5lU4rR1_15rs_liquid_xoxno19___wasm__endpoints__26get_ls_amount_for_positionpEB4_
FNDA:0,_RINvNtCs9vgV5lU4rR1_15rs_liquid_xoxno19___wasm__endpoints__17get_exchange_ratepEB4_
FNDA:0,_RINvNtCs9vgV5lU4rR1_15rs_liquid_xoxno19___wasm__endpoints__8callBackpEB4_
FNDA:0,_RINvYpNtCs9vgV5lU4rR1_15rs_liquid_xoxno10ProxyTrait4initpEB6_
FNDA:0,_RNvYpNtCs9vgV5lU4rR1_15rs_liquid_xoxno10ProxyTrait7upgradeB5_
FNDA:0,_RINvYpNtCs9vgV5lU4rR1_15rs_liquid_xoxno10ProxyTrait8delegatepEB6_
FNDA:0,_RNvYpNtCs9vgV5lU4rR1_15rs_liquid_xoxno10ProxyTrait11un_delegateB5_
FNDA:0,_RNvYpNtCs9vgV5lU4rR1_15rs_liquid_xoxno10ProxyTrait8withdrawB5_
FNDA:0,_RNvYpNtCs9vgV5lU4rR1_15rs_liquid_xoxno10ProxyTrait11add_rewardsB5_
FNDA:0,_RINvYpNtCs9vgV5lU4rR1_15rs_liquid_xoxno10ProxyTrait25get_ls_value_for_positionpEB6_
FNDA:0,_RINvYpNtCs9vgV5lU4rR1_15rs_liquid_xoxno10ProxyTrait26get_ls_amount_for_positionpEB6_
FNDA:0,_RNvYpNtCs9vgV5lU4rR1_15rs_liquid_xoxno10ProxyTrait17get_exchange_rateB5_
FNDA:0,_RNvXINICs9vgV5lU4rR1_15rs_liquid_xoxnosh_0pEINtB5_5ProxypENtNtNtCsh3ejzyzYXgs_13multiversx_sc13contract_base14proxy_obj_base12ProxyObjBase19extract_opt_addressB5_
FNDA:0,_RNvXINICs9vgV5lU4rR1_15rs_liquid_xoxnosh_0pEINtB5_5ProxypENtNtNtCsh3ejzyzYXgs_13multiversx_sc13contract_base14proxy_obj_base12ProxyObjBase16extract_proxy_toB5_
FNDA:0,_RNvXINICs9vgV5lU4rR1_15rs_liquid_xoxnosi_0pEINtB5_5ProxypENtNtNtCsh3ejzyzYXgs_13multiversx_sc13contract_base14proxy_obj_base11ProxyObjNew13new_proxy_objB5_
FNDA:0,_RNvXINICs9vgV5lU4rR1_15rs_liquid_xoxnosi_0pEINtB5_5ProxypENtNtNtCsh3ejzyzYXgs_13multiversx_sc13contract_base14proxy_obj_base11ProxyObjNew8contractB5_
FNDA:0,_RNvXINICs9vgV5lU4rR1_15rs_liquid_xoxnosj_0pEINtB5_7ProxyTopENtNtNtCsh3ejzyzYXgs_13multiversx_sc13contract_base14proxy_obj_base12ProxyObjBase19extract_opt_addressB5_
FNDA:0,_RNvXINICs9vgV5lU4rR1_15rs_liquid_xoxnosj_0pEINtB5_7ProxyTopENtNtNtCsh3ejzyzYXgs_13multiversx_sc13contract_base14proxy_obj_base12ProxyObjBase15extract_addressB5_
FNDA:0,_RNvXINICs9vgV5lU4rR1_15rs_liquid_xoxnosj_0pEINtB5_7ProxyTopENtNtNtCsh3ejzyzYXgs_13multiversx_sc13contract_base14proxy_obj_base12ProxyObjBase16extract_proxy_toB5_
FNF:9
FNH:5
DA:18,89
DA:28,0
DA:29,0
DA:37,17
DA:38,17
DA:39,17
DA:40,0
DA:41,17
DA:44,17
DA:45,17
DA:46,17
DA:47,0
DA:50,17
DA:51,17
DA:52,1
DA:55,16
DA:56,16
DA:57,16
DA:58,16
DA:59,16
DA:60,16
DA:61,16
DA:62,16
DA:63,16
DA:64,16
DA:69,7
DA:70,7
DA:71,7
DA:72,7
DA:73,7
DA:74,7
DA:75,7
DA:76,0
DA:78,7
DA:79,7
DA:80,0
DA:82,7
DA:83,7
DA:84,0
DA:86,7
DA:88,7
DA:89,7
DA:90,7
DA:91,7
DA:92,7
DA:93,7
DA:94,7
DA:95,7
DA:96,7
DA:97,7
DA:98,7
DA:99,7
DA:100,7
DA:101,7
DA:102,7
DA:103,7
DA:104,7
DA:105,7
DA:106,7
DA:107,7
DA:108,7
DA:109,7
DA:110,7
DA:115,2
DA:116,2
DA:117,2
DA:118,2
DA:119,2
DA:120,2
DA:121,2
DA:122,2
DA:123,0
DA:125,2
DA:126,2
DA:127,2
DA:128,2
DA:130,2
DA:131,2
DA:132,2
DA:133,2
DA:134,2
DA:135,2
DA:136,1
DA:139,1
DA:140,1
DA:141,1
DA:142,1
DA:143,0
DA:144,1
DA:145,1
DA:146,1
DA:148,1
DA:149,1
DA:151,1
DA:152,1
DA:153,1
DA:154,1
DA:155,1
DA:156,1
DA:161,6
DA:162,6
DA:163,6
DA:164,6
DA:165,6
DA:166,6
DA:167,6
DA:168,0
DA:171,6
DA:172,6
DA:173,0
DA:175,6
DA:176,6
DA:177,6
DA:181,0
DA:182,0
DA:183,0
DA:187,0
DA:188,0
DA:189,0
DA:193,0
DA:194,0
DA:195,0
DA:196,0
DA:197,0
DA:198,0
DA:199,0
DA:200,0
DA:201,0
DA:202,0
BRF:0
BRH:0
LF:129
LH:102
end_of_record
SF:/Users/mihaieremia/GitHub/rs-liquid-xoxno/src/liquidity_pool.rs
FN:141,_RINvYINtNtNtCsh3ejzyzYXgs_13multiversx_sc13contract_base22universal_contract_obj20UniversalContractObjINtNtNtNtCseXgWFdEnwTg_22multiversx_sc_scenario3api7impl_vh12vm_hooks_api10VMHooksApiNtNtB1H_9debug_api15DebugApiBackendEENtNtCs10KhxTnoMk3_15rs_liquid_xoxno14liquidity_pool19LiquidityPoolModule19mint_unstake_tokensINtNtB3E_6config22UnstakeTokenAttributesB1C_EECsazs3bHuZQb5_14blackbox_tests
FN:20,_RNvYINtNtNtCsh3ejzyzYXgs_13multiversx_sc13contract_base22universal_contract_obj20UniversalContractObjINtNtNtNtCseXgWFdEnwTg_22multiversx_sc_scenario3api7impl_vh12vm_hooks_api10VMHooksApiNtNtB1G_9debug_api15DebugApiBackendEENtNtCs10KhxTnoMk3_15rs_liquid_xoxno14liquidity_pool16EndpointWrappers17callback_selectorCsazs3bHuZQb5_14blackbox_tests
FN:20,_RNvYINtNtNtCsh3ejzyzYXgs_13multiversx_sc13contract_base22universal_contract_obj20UniversalContractObjINtNtNtNtCseXgWFdEnwTg_22multiversx_sc_scenario3api7impl_vh12vm_hooks_api10VMHooksApiNtNtB1G_9debug_api15DebugApiBackendEENtNtCs10KhxTnoMk3_15rs_liquid_xoxno14liquidity_pool16EndpointWrappers4callCsazs3bHuZQb5_14blackbox_tests
FN:20,_RNvYINtNtNtCsh3ejzyzYXgs_13multiversx_sc13contract_base22universal_contract_obj20UniversalContractObjINtNtNtNtCseXgWFdEnwTg_22multiversx_sc_scenario3api7impl_vh12vm_hooks_api10VMHooksApiNtNtB1G_9debug_api15DebugApiBackendEENtNtCs10KhxTnoMk3_15rs_liquid_xoxno14liquidity_pool16EndpointWrappers8callbackCsazs3bHuZQb5_14blackbox_tests
FN:137,_RNvYINtNtNtCsh3ejzyzYXgs_13multiversx_sc13contract_base22universal_contract_obj20UniversalContractObjINtNtNtNtCseXgWFdEnwTg_22multiversx_sc_scenario3api7impl_vh12vm_hooks_api10VMHooksApiNtNtB1G_9debug_api15DebugApiBackendEENtNtCs10KhxTnoMk3_15rs_liquid_xoxno14liquidity_pool19LiquidityPoolModule13burn_ls_tokenCsazs3bHuZQb5_14blackbox_tests
FN:133,_RNvYINtNtNtCsh3ejzyzYXgs_13multiversx_sc13contract_base22universal_contract_obj20UniversalContractObjINtNtNtNtCseXgWFdEnwTg_22multiversx_sc_scenario3api7impl_vh12vm_hooks_api10VMHooksApiNtNtB1G_9debug_api15DebugApiBackendEENtNtCs10KhxTnoMk3_15rs_liquid_xoxno14liquidity_pool19LiquidityPoolModule13mint_ls_tokenCsazs3bHuZQb5_14blackbox_tests
FN:53,_RNvYINtNtNtCsh3ejzyzYXgs_13multiversx_sc13contract_base22universal_contract_obj20UniversalContractObjINtNtNtNtCseXgWFdEnwTg_22multiversx_sc_scenario3api7impl_vh12vm_hooks_api10VMHooksApiNtNtB1G_9debug_api15DebugApiBackendEENtNtCs10KhxTnoMk3_15rs_liquid_xoxno14liquidity_pool19LiquidityPoolModule16get_xoxno_amountCsazs3bHuZQb5_14blackbox_tests
FN:28,_RNvYINtNtNtCsh3ejzyzYXgs_13multiversx_sc13contract_base22universal_contract_obj20UniversalContractObjINtNtNtNtCseXgWFdEnwTg_22multiversx_sc_scenario3api7impl_vh12vm_hooks_api10VMHooksApiNtNtB1G_9debug_api15DebugApiBackendEENtNtCs10KhxTnoMk3_15rs_liquid_xoxno14liquidity_pool19LiquidityPoolModule18pool_add_liquidityCsazs3bHuZQb5_14blackbox_tests
FN:151,_RNvYINtNtNtCsh3ejzyzYXgs_13multiversx_sc13contract_base22universal_contract_obj20UniversalContractObjINtNtNtNtCseXgWFdEnwTg_22multiversx_sc_scenario3api7impl_vh12vm_hooks_api10VMHooksApiNtNtB1G_9debug_api15DebugApiBackendEENtNtCs10KhxTnoMk3_15rs_liquid_xoxno14liquidity_pool19LiquidityPoolModule19burn_unstake_tokensCsazs3bHuZQb5_14blackbox_tests
FN:87,_RNvYINtNtNtCsh3ejzyzYXgs_13multiversx_sc13contract_base22universal_contract_obj20UniversalContractObjINtNtNtNtCseXgWFdEnwTg_22multiversx_sc_scenario3api7impl_vh12vm_hooks_api10VMHooksApiNtNtB1G_9debug_api15DebugApiBackendEENtNtCs10KhxTnoMk3_15rs_liquid_xoxno14liquidity_pool19LiquidityPoolModule19get_ls_token_amountCsazs3bHuZQb5_14blackbox_tests
FN:41,_RNvYINtNtNtCsh3ejzyzYXgs_13multiversx_sc13contract_base22universal_contract_obj20UniversalContractObjINtNtNtNtCseXgWFdEnwTg_22multiversx_sc_scenario3api7impl_vh12vm_hooks_api10VMHooksApiNtNtB1G_9debug_api15DebugApiBackendEENtNtCs10KhxTnoMk3_15rs_liquid_xoxno14liquidity_pool19LiquidityPoolModule21pool_remove_liquidityCsazs3bHuZQb5_14blackbox_tests
FN:70,_RNvYINtNtNtCsh3ejzyzYXgs_13multiversx_sc13contract_base22universal_contract_obj20UniversalContractObjINtNtNtNtCseXgWFdEnwTg_22multiversx_sc_scenario3api7impl_vh12vm_hooks_api10VMHooksApiNtNtB1G_9debug_api15DebugApiBackendEENtNtCs10KhxTnoMk3_15rs_liquid_xoxno14liquidity_pool19LiquidityPoolModule26get_xoxno_amount_read_onlyCsazs3bHuZQb5_14blackbox_tests
FN:112,_RNvYINtNtNtCsh3ejzyzYXgs_13multiversx_sc13contract_base22universal_contract_obj20UniversalContractObjINtNtNtNtCseXgWFdEnwTg_22multiversx_sc_scenario3api7impl_vh12vm_hooks_api10VMHooksApiNtNtB1G_9debug_api15DebugApiBackendEENtNtCs10KhxTnoMk3_15rs_liquid_xoxno14liquidity_pool19LiquidityPoolModule28get_ls_token_amount_readonlyCsazs3bHuZQb5_14blackbox_tests
FN:14,_RINvXse_NtCs10KhxTnoMk3_15rs_liquid_xoxno14liquidity_poolNtB6_5StateNtNtNtCsjx1dcze9jAA_19multiversx_sc_codec6single6top_en9TopEncode24top_encode_or_handle_errINtNtNtCsh3ejzyzYXgs_13multiversx_sc2io6finish16ApiOutputAdapterINtNtNtNtCseXgWFdEnwTg_22multiversx_sc_scenario3api7impl_vh12vm_hooks_api10VMHooksApiNtNtB3E_9debug_api15DebugApiBackendEEINtNtNtNtB2E_13contract_base8wrappers10serializer21ExitCodecErrorHandlerB3z_EECsazs3bHuZQb5_14blackbox_tests
FN:14,_RINvXse_NtCs10KhxTnoMk3_15rs_liquid_xoxno14liquidity_poolNtB6_5StateNtNtNtCsjx1dcze9jAA_19multiversx_sc_codec6single6top_en9TopEncode24top_encode_or_handle_errINtNtNtCsh3ejzyzYXgs_13multiversx_sc7storage11storage_set16StorageSetOutputINtNtNtNtCseXgWFdEnwTg_22multiversx_sc_scenario3api7impl_vh12vm_hooks_api10VMHooksApiNtNtB3P_9debug_api15DebugApiBackendEEINtNtNtNtB2E_13contract_base8wrappers10serializer21ExitCodecErrorHandlerB3K_EECsazs3bHuZQb5_14blackbox_tests
FN:14,_RINvXsf_NtCs10KhxTnoMk3_15rs_liquid_xoxno14liquidity_poolNtB6_5StateNtNtNtCsjx1dcze9jAA_19multiversx_sc_codec6single6top_de9TopDecode24top_decode_or_handle_errINtNtNtCsh3ejzyzYXgs_13multiversx_sc7storage11storage_get15StorageGetInputINtNtNtNtCseXgWFdEnwTg_22multiversx_sc_scenario3api7impl_vh12vm_hooks_api10VMHooksApiNtNtB3O_9debug_api15DebugApiBackendEEINtB2A_22StorageGetErrorHandlerB3J_EECsazs3bHuZQb5_14blackbox_tests
FN:14,_RINvXse_NtCs9vgV5lU4rR1_15rs_liquid_xoxno14liquidity_poolNtB6_5StateNtNtNtCsjx1dcze9jAA_19multiversx_sc_codec6single6top_en9TopEncode24top_encode_or_handle_errppEB8_
FN:14,_RINvXsf_NtCs9vgV5lU4rR1_15rs_liquid_xoxno14liquidity_poolNtB6_5StateNtNtNtCsjx1dcze9jAA_19multiversx_sc_codec6single6top_de9TopDecode24top_decode_or_handle_errppEB8_
FN:13,_RNvXsd_NtCs9vgV5lU4rR1_15rs_liquid_xoxno14liquidity_poolNtB5_5StateNtNtNtCsh3ejzyzYXgs_13multiversx_sc3abi8type_abi7TypeAbi9type_name
FN:13,_RINvXsd_NtCs9vgV5lU4rR1_15rs_liquid_xoxno14liquidity_poolNtB6_5StateNtNtNtCsh3ejzyzYXgs_13multiversx_sc3abi8type_abi7TypeAbi25provide_type_descriptionspEB8_
FN:28,_RNvYpNtNtCs9vgV5lU4rR1_15rs_liquid_xoxno14liquidity_pool19LiquidityPoolModule18pool_add_liquidityB7_
FN:41,_RNvYpNtNtCs9vgV5lU4rR1_15rs_liquid_xoxno14liquidity_pool19LiquidityPoolModule21pool_remove_liquidityB7_
FN:53,_RNvYpNtNtCs9vgV5lU4rR1_15rs_liquid_xoxno14liquidity_pool19LiquidityPoolModule16get_xoxno_amountB7_
FN:70,_RNvYpNtNtCs9vgV5lU4rR1_15rs_liquid_xoxno14liquidity_pool19LiquidityPoolModule26get_xoxno_amount_read_onlyB7_
FN:87,_RNvYpNtNtCs9vgV5lU4rR1_15rs_liquid_xoxno14liquidity_pool19LiquidityPoolModule19get_ls_token_amountB7_
FN:112,_RNvYpNtNtCs9vgV5lU4rR1_15rs_liquid_xoxno14liquidity_pool19LiquidityPoolModule28get_ls_token_amount_readonlyB7_
FN:133,_RNvYpNtNtCs9vgV5lU4rR1_15rs_liquid_xoxno14liquidity_pool19LiquidityPoolModule13mint_ls_tokenB7_
FN:137,_RNvYpNtNtCs9vgV5lU4rR1_15rs_liquid_xoxno14liquidity_pool19LiquidityPoolModule13burn_ls_tokenB7_
FN:141,_RINvYpNtNtCs9vgV5lU4rR1_15rs_liquid_xoxno14liquidity_pool19LiquidityPoolModule19mint_unstake_tokenspEB8_
FN:151,_RNvYpNtNtCs9vgV5lU4rR1_15rs_liquid_xoxno14liquidity_pool19LiquidityPoolModule19burn_unstake_tokensB7_
FN:20,_RNvYpNtNtCs9vgV5lU4rR1_15rs_liquid_xoxno14liquidity_pool16EndpointWrappers4callB7_
FN:20,_RNvYpNtNtCs9vgV5lU4rR1_15rs_liquid_xoxno14liquidity_pool16EndpointWrappers17callback_selectorB7_
FN:20,_RNvYpNtNtCs9vgV5lU4rR1_15rs_liquid_xoxno14liquidity_pool16EndpointWrappers8callbackB7_
FN:20,_RNvXs1_NtCs9vgV5lU4rR1_15rs_liquid_xoxno14liquidity_poolNtB5_11AbiProviderNtNtNtCsh3ejzyzYXgs_13multiversx_sc13contract_base21contract_abi_provider19ContractAbiProvider3abi
FN:20,_RNvXININtCs9vgV5lU4rR1_15rs_liquid_xoxno14liquidity_pools9_0pEINtB5_11ContractObjpENtNtNtCsh3ejzyzYXgs_13multiversx_sc13contract_base17callable_contract16CallableContract4callB7_
FN:20,_RINvNtCs9vgV5lU4rR1_15rs_liquid_xoxno14liquidity_pool12contract_objpEB4_
FN:20,_RINvXsa_NtCs9vgV5lU4rR1_15rs_liquid_xoxno14liquidity_poolNtB6_15ContractBuilderNtNtNtCsh3ejzyzYXgs_13multiversx_sc13contract_base17callable_contract23CallableContractBuilder16new_contract_objpEB8_
FNDA:6,_RINvYINtNtNtCsh3ejzyzYXgs_13multiversx_sc13contract_base22universal_contract_obj20UniversalContractObjINtNtNtNtCseXgWFdEnwTg_22multiversx_sc_scenario3api7impl_vh12vm_hooks_api10VMHooksApiNtNtB1H_9debug_api15DebugApiBackendEENtNtCs10KhxTnoMk3_15rs_liquid_xoxno14liquidity_pool19LiquidityPoolModule19mint_unstake_tokensINtNtB3E_6config22UnstakeTokenAttributesB1C_EECsazs3bHuZQb5_14blackbox_tests
FNDA:0,_RNvYINtNtNtCsh3ejzyzYXgs_13multiversx_sc13contract_base22universal_contract_obj20UniversalContractObjINtNtNtNtCseXgWFdEnwTg_22multiversx_sc_scenario3api7impl_vh12vm_hooks_api10VMHooksApiNtNtB1G_9debug_api15DebugApiBackendEENtNtCs10KhxTnoMk3_15rs_liquid_xoxno14liquidity_pool16EndpointWrappers17callback_selectorCsazs3bHuZQb5_14blackbox_tests
FNDA:0,_RNvYINtNtNtCsh3ejzyzYXgs_13multiversx_sc13contract_base22universal_contract_obj20UniversalContractObjINtNtNtNtCseXgWFdEnwTg_22multiversx_sc_scenario3api7impl_vh12vm_hooks_api10VMHooksApiNtNtB1G_9debug_api15DebugApiBackendEENtNtCs10KhxTnoMk3_15rs_liquid_xoxno14liquidity_pool16EndpointWrappers4callCsazs3bHuZQb5_14blackbox_tests
FNDA:0,_RNvYINtNtNtCsh3ejzyzYXgs_13multiversx_sc13contract_base22universal_contract_obj20UniversalContractObjINtNtNtNtCseXgWFdEnwTg_22multiversx_sc_scenario3api7impl_vh12vm_hooks_api10VMHooksApiNtNtB1G_9debug_api15DebugApiBackendEENtNtCs10KhxTnoMk3_15rs_liquid_xoxno14liquidity_pool16EndpointWrappers8callbackCsazs3bHuZQb5_14blackbox_tests
FNDA:6,_RNvYINtNtNtCsh3ejzyzYXgs_13multiversx_sc13contract_base22universal_contract_obj20UniversalContractObjINtNtNtNtCseXgWFdEnwTg_22multiversx_sc_scenario3api7impl_vh12vm_hooks_api10VMHooksApiNtNtB1G_9debug_api15DebugApiBackendEENtNtCs10KhxTnoMk3_15rs_liquid_xoxno14liquidity_pool19LiquidityPoolModule13burn_ls_tokenCsazs3bHuZQb5_14blackbox_tests
FNDA:16,_RNvYINtNtNtCsh3ejzyzYXgs_13multiversx_sc13contract_base22universal_contract_obj20UniversalContractObjINtNtNtNtCseXgWFdEnwTg_22multiversx_sc_scenario3api7impl_vh12vm_hooks_api10VMHooksApiNtNtB1G_9debug_api15DebugApiBackendEENtNtCs10KhxTnoMk3_15rs_liquid_xoxno14liquidity_pool19LiquidityPoolModule13mint_ls_tokenCsazs3bHuZQb5_14blackbox_tests
FNDA:7,_RNvYINtNtNtCsh3ejzyzYXgs_13multiversx_sc13contract_base22universal_contract_obj20UniversalContractObjINtNtNtNtCseXgWFdEnwTg_22multiversx_sc_scenario3api7impl_vh12vm_hooks_api10VMHooksApiNtNtB1G_9debug_api15DebugApiBackendEENtNtCs10KhxTnoMk3_15rs_liquid_xoxno14liquidity_pool19LiquidityPoolModule16get_xoxno_amountCsazs3bHuZQb5_14blackbox_tests
FNDA:16,_RNvYINtNtNtCsh3ejzyzYXgs_13multiversx_sc13contract_base22universal_contract_obj20UniversalContractObjINtNtNtNtCseXgWFdEnwTg_22multiversx_sc_scenario3api7impl_vh12vm_hooks_api10VMHooksApiNtNtB1G_9debug_api15DebugApiBackendEENtNtCs10KhxTnoMk3_15rs_liquid_xoxno14liquidity_pool19LiquidityPoolModule18pool_add_liquidityCsazs3bHuZQb5_14blackbox_tests
FNDA:1,_RNvYINtNtNtCsh3ejzyzYXgs_13multiversx_sc13contract_base22universal_contract_obj20UniversalContractObjINtNtNtNtCseXgWFdEnwTg_22multiversx_sc_scenario3api7impl_vh12vm_hooks_api10VMHooksApiNtNtB1G_9debug_api15DebugApiBackendEENtNtCs10KhxTnoMk3_15rs_liquid_xoxno14liquidity_pool19LiquidityPoolModule19burn_unstake_tokensCsazs3bHuZQb5_14blackbox_tests
FNDA:16,_RNvYINtNtNtCsh3ejzyzYXgs_13multiversx_sc13contract_base22universal_contract_obj20UniversalContractObjINtNtNtNtCseXgWFdEnwTg_22multiversx_sc_scenario3api7impl_vh12vm_hooks_api10VMHooksApiNtNtB1G_9debug_api15DebugApiBackendEENtNtCs10KhxTnoMk3_15rs_liquid_xoxno14liquidity_pool19LiquidityPoolModule19get_ls_token_amountCsazs3bHuZQb5_14blackbox_tests
FNDA:7,_RNvYINtNtNtCsh3ejzyzYXgs_13multiversx_sc13contract_base22universal_contract_obj20UniversalContractObjINtNtNtNtCseXgWFdEnwTg_22multiversx_sc_scenario3api7impl_vh12vm_hooks_api10VMHooksApiNtNtB1G_9debug_api15DebugApiBackendEENtNtCs10KhxTnoMk3_15rs_liquid_xoxno14liquidity_pool19LiquidityPoolModule21pool_remove_liquidityCsazs3bHuZQb5_14blackbox_tests
FNDA:0,_RNvYINtNtNtCsh3ejzyzYXgs_13multiversx_sc13contract_base22universal_contract_obj20UniversalContractObjINtNtNtNtCseXgWFdEnwTg_22multiversx_sc_scenario3api7impl_vh12vm_hooks_api10VMHooksApiNtNtB1G_9debug_api15DebugApiBackendEENtNtCs10KhxTnoMk3_15rs_liquid_xoxno14liquidity_pool19LiquidityPoolModule26get_xoxno_amount_read_onlyCsazs3bHuZQb5_14blackbox_tests
FNDA:0,_RNvYINtNtNtCsh3ejzyzYXgs_13multiversx_sc13contract_base22universal_contract_obj20UniversalContractObjINtNtNtNtCseXgWFdEnwTg_22multiversx_sc_scenario3api7impl_vh12vm_hooks_api10VMHooksApiNtNtB1G_9debug_api15DebugApiBackendEENtNtCs10KhxTnoMk3_15rs_liquid_xoxno14liquidity_pool19LiquidityPoolModule28get_ls_token_amount_readonlyCsazs3bHuZQb5_14blackbox_tests
FNDA:3,_RINvXse_NtCs10KhxTnoMk3_15rs_liquid_xoxno14liquidity_poolNtB6_5StateNtNtNtCsjx1dcze9jAA_19multiversx_sc_codec6single6top_en9TopEncode24top_encode_or_handle_errINtNtNtCsh3ejzyzYXgs_13multiversx_sc2io6finish16ApiOutputAdapterINtNtNtNtCseXgWFdEnwTg_22multiversx_sc_scenario3api7impl_vh12vm_hooks_api10VMHooksApiNtNtB3E_9debug_api15DebugApiBackendEEINtNtNtNtB2E_13contract_base8wrappers10serializer21ExitCodecErrorHandlerB3z_EECsazs3bHuZQb5_14blackbox_tests
FNDA:13,_RINvXse_NtCs10KhxTnoMk3_15rs_liquid_xoxno14liquidity_poolNtB6_5StateNtNtNtCsjx1dcze9jAA_19multiversx_sc_codec6single6top_en9TopEncode24top_encode_or_handle_errINtNtNtCsh3ejzyzYXgs_13multiversx_sc7storage11storage_set16StorageSetOutputINtNtNtNtCseXgWFdEnwTg_22multiversx_sc_scenario3api7impl_vh12vm_hooks_api10VMHooksApiNtNtB3P_9debug_api15DebugApiBackendEEINtNtNtNtB2E_13contract_base8wrappers10serializer21ExitCodecErrorHandlerB3K_EECsazs3bHuZQb5_14blackbox_tests
FNDA:35,_RINvXsf_NtCs10KhxTnoMk3_15rs_liquid_xoxno14liquidity_poolNtB6_5StateNtNtNtCsjx1dcze9jAA_19multiversx_sc_codec6single6top_de9TopDecode24top_decode_or_handle_errINtNtNtCsh3ejzyzYXgs_13multiversx_sc7storage11storage_get15StorageGetInputINtNtNtNtCseXgWFdEnwTg_22multiversx_sc_scenario3api7impl_vh12vm_hooks_api10VMHooksApiNtNtB3O_9debug_api15DebugApiBackendEEINtB2A_22StorageGetErrorHandlerB3J_EECsazs3bHuZQb5_14blackbox_tests
FNDA:0,_RINvXse_NtCs9vgV5lU4rR1_15rs_liquid_xoxno14liquidity_poolNtB6_5StateNtNtNtCsjx1dcze9jAA_19multiversx_sc_codec6single6top_en9TopEncode24top_encode_or_handle_errppEB8_
FNDA:0,_RINvXsf_NtCs9vgV5lU4rR1_15rs_liquid_xoxno14liquidity_poolNtB6_5StateNtNtNtCsjx1dcze9jAA_19multiversx_sc_codec6single6top_de9TopDecode24top_decode_or_handle_errppEB8_
FNDA:0,_RNvXsd_NtCs9vgV5lU4rR1_15rs_liquid_xoxno14liquidity_poolNtB5_5StateNtNtNtCsh3ejzyzYXgs_13multiversx_sc3abi8type_abi7TypeAbi9type_name
FNDA:0,_RINvXsd_NtCs9vgV5lU4rR1_15rs_liquid_xoxno14liquidity_poolNtB6_5StateNtNtNtCsh3ejzyzYXgs_13multiversx_sc3abi8type_abi7TypeAbi25provide_type_descriptionspEB8_
FNDA:0,_RNvYpNtNtCs9vgV5lU4rR1_15rs_liquid_xoxno14liquidity_pool19LiquidityPoolModule18pool_add_liquidityB7_
FNDA:0,_RNvYpNtNtCs9vgV5lU4rR1_15rs_liquid_xoxno14liquidity_pool19LiquidityPoolModule21pool_remove_liquidityB7_
FNDA:0,_RNvYpNtNtCs9vgV5lU4rR1_15rs_liquid_xoxno14liquidity_pool19LiquidityPoolModule16get_xoxno_amountB7_
FNDA:0,_RNvYpNtNtCs9vgV5lU4rR1_15rs_liquid_xoxno14liquidity_pool19LiquidityPoolModule26get_xoxno_amount_read_onlyB7_
FNDA:0,_RNvYpNtNtCs9vgV5lU4rR1_15rs_liquid_xoxno14liquidity_pool19LiquidityPoolModule19get_ls_token_amountB7_
FNDA:0,_RNvYpNtNtCs9vgV5lU4rR1_15rs_liquid_xoxno14liquidity_pool19LiquidityPoolModule28get_ls_token_amount_readonlyB7_
FNDA:0,_RNvYpNtNtCs9vgV5lU4rR1_15rs_liquid_xoxno14liquidity_pool19LiquidityPoolModule13mint_ls_tokenB7_
FNDA:0,_RNvYpNtNtCs9vgV5lU4rR1_15rs_liquid_xoxno14liquidity_pool19LiquidityPoolModule13burn_ls_tokenB7_
FNDA:0,_RINvYpNtNtCs9vgV5lU4rR1_15rs_liquid_xoxno14liquidity_pool19LiquidityPoolModule19mint_unstake_tokenspEB8_
FNDA:0,_RNvYpNtNtCs9vgV5lU4rR1_15rs_liquid_xoxno14liquidity_pool19LiquidityPoolModule19burn_unstake_tokensB7_
FNDA:0,_RNvYpNtNtCs9vgV5lU4rR1_15rs_liquid_xoxno14liquidity_pool16EndpointWrappers4callB7_
FNDA:0,_RNvYpNtNtCs9vgV5lU4rR1_15rs_liquid_xoxno14liquidity_pool16EndpointWrappers17callback_selectorB7_
FNDA:0,_RNvYpNtNtCs9vgV5lU4rR1_15rs_liquid_xoxno14liquidity_pool16EndpointWrappers8callbackB7_
FNDA:0,_RNvXs1_NtCs9vgV5lU4rR1_15rs_liquid_xoxno14liquidity_poolNtB5_11AbiProviderNtNtNtCsh3ejzyzYXgs_13multiversx_sc13contract_base21contract_abi_provider19ContractAbiProvider3abi
FNDA:0,_RNvXININtCs9vgV5lU4rR1_15rs_liquid_xoxno14liquidity_pools9_0pEINtB5_11ContractObjpENtNtNtCsh3ejzyzYXgs_13multiversx_sc13contract_base17callable_contract16CallableContract4callB7_
FNDA:0,_RINvNtCs9vgV5lU4rR1_15rs_liquid_xoxno14liquidity_pool12contract_objpEB4_
FNDA:0,_RINvXsa_NtCs9vgV5lU4rR1_15rs_liquid_xoxno14liquidity_poolNtB6_15ContractBuilderNtNtNtCsh3ejzyzYXgs_13multiversx_sc13contract_base17callable_contract23CallableContractBuilder16new_contract_objpEB8_
FNF:14
FNH:10
DA:13,0
DA:14,35
DA:20,0
DA:28,16
DA:29,16
DA:30,16
DA:31,16
DA:32,16
DA:33,16
DA:34,16
DA:41,7
DA:42,7
DA:43,7
DA:44,7
DA:45,7
DA:46,7
DA:53,7
DA:54,7
DA:55,7
DA:56,1
DA:59,6
DA:60,6
DA:61,6
DA:63,6
DA:70,0
DA:71,0
DA:72,0
DA:73,0
DA:76,0
DA:77,0
DA:78,0
DA:80,0
DA:87,16
DA:88,16
DA:89,16
DA:90,16
DA:91,0
DA:95,16
DA:96,5
DA:97,5
DA:99,11
DA:103,16
DA:105,16
DA:112,0
DA:113,0
DA:114,0
DA:115,0
DA:116,0
DA:120,0
DA:121,0
DA:122,0
DA:124,0
DA:128,0
DA:130,0
DA:133,16
DA:134,16
DA:137,6
DA:138,6
DA:141,6
DA:142,6
DA:143,6
DA:144,6
DA:145,6
DA:146,6
DA:147,6
DA:148,6
DA:151,1
DA:152,1
DA:153,1
BRF:0
BRH:0
LF:70
LH:48
end_of_record
SF:/Users/mihaieremia/GitHub/rs-liquid-xoxno/src/rs_xoxno_proxy.rs
FN:88,_RINvMs1_NtCs10KhxTnoMk3_15rs_liquid_xoxno14rs_xoxno_proxyINtB6_25RsLiquidXoxnoProxyMethodsNtNtNtNtCseXgWFdEnwTg_22multiversx_sc_scenario6facade8world_tx18scenario_exec_call15ScenarioEnvExecNtNtNtNtNtCsh3ejzyzYXgs_13multiversx_sc5types11interaction4expr12test_address11TestAddressNtNtB35_15test_sc_address13TestSCAddressuE8delegateINtNtNtCsjx1dcze9jAA_19multiversx_sc_codec11multi_types20multi_value_optional13OptionalValueB31_EECsazs3bHuZQb5_14blackbox_tests
FN:278,_RINvXs5_NtCs10KhxTnoMk3_15rs_liquid_xoxno14rs_xoxno_proxyNtB6_5StateNtNtNtCsjx1dcze9jAA_19multiversx_sc_codec6single6top_en9TopEncode24top_encode_or_handle_errQINtNtCshTKFwE22Rw2_5alloc3vec3VechENtNtB1a_17codec_err_handler19DefaultErrorHandlerECsazs3bHuZQb5_14blackbox_tests
FN:116,_RNvMs1_NtCs10KhxTnoMk3_15rs_liquid_xoxno14rs_xoxno_proxyINtB5_25RsLiquidXoxnoProxyMethodsNtNtNtNtCseXgWFdEnwTg_22multiversx_sc_scenario6facade8world_tx18scenario_exec_call15ScenarioEnvExecNtNtNtNtNtCsh3ejzyzYXgs_13multiversx_sc5types11interaction4expr12test_address11TestAddressNtNtB34_15test_sc_address13TestSCAddressuE11add_rewardsCsazs3bHuZQb5_14blackbox_tests
FN:100,_RNvMs1_NtCs10KhxTnoMk3_15rs_liquid_xoxno14rs_xoxno_proxyINtB5_25RsLiquidXoxnoProxyMethodsNtNtNtNtCseXgWFdEnwTg_22multiversx_sc_scenario6facade8world_tx18scenario_exec_call15ScenarioEnvExecNtNtNtNtNtCsh3ejzyzYXgs_13multiversx_sc5types11interaction4expr12test_address11TestAddressNtNtB34_15test_sc_address13TestSCAddressuE11un_delegateCsazs3bHuZQb5_14blackbox_tests
FN:195,_RNvMs1_NtCs10KhxTnoMk3_15rs_liquid_xoxno14rs_xoxno_proxyINtB5_25RsLiquidXoxnoProxyMethodsNtNtNtNtCseXgWFdEnwTg_22multiversx_sc_scenario6facade8world_tx18scenario_exec_call15ScenarioEnvExecNtNtNtNtNtCsh3ejzyzYXgs_13multiversx_sc5types11interaction4expr12test_address11TestAddressNtNtB34_15test_sc_address13TestSCAddressuE16set_state_activeCsazs3bHuZQb5_14blackbox_tests
FN:204,_RNvMs1_NtCs10KhxTnoMk3_15rs_liquid_xoxno14rs_xoxno_proxyINtB5_25RsLiquidXoxnoProxyMethodsNtNtNtNtCseXgWFdEnwTg_22multiversx_sc_scenario6facade8world_tx18scenario_exec_call15ScenarioEnvExecNtNtNtNtNtCsh3ejzyzYXgs_13multiversx_sc5types11interaction4expr12test_address11TestAddressNtNtB34_15test_sc_address13TestSCAddressuE18set_state_inactiveCsazs3bHuZQb5_14blackbox_tests
FN:108,_RNvMs1_NtCs10KhxTnoMk3_15rs_liquid_xoxno14rs_xoxno_proxyINtB5_25RsLiquidXoxnoProxyMethodsNtNtNtNtCseXgWFdEnwTg_22multiversx_sc_scenario6facade8world_tx18scenario_exec_call15ScenarioEnvExecNtNtNtNtNtCsh3ejzyzYXgs_13multiversx_sc5types11interaction4expr12test_address11TestAddressNtNtB34_15test_sc_address13TestSCAddressuE8withdrawCsazs3bHuZQb5_14blackbox_tests
FN:231,_RNvMs1_NtCs10KhxTnoMk3_15rs_liquid_xoxno14rs_xoxno_proxyINtB5_25RsLiquidXoxnoProxyMethodsNtNtNtNtCseXgWFdEnwTg_22multiversx_sc_scenario6facade8world_tx19scenario_query_call16ScenarioEnvQueryuNtNtNtNtNtCsh3ejzyzYXgs_13multiversx_sc5types11interaction4expr15test_sc_address13TestSCAddressuE10main_tokenCsazs3bHuZQb5_14blackbox_tests
FN:240,_RNvMs1_NtCs10KhxTnoMk3_15rs_liquid_xoxno14rs_xoxno_proxyINtB5_25RsLiquidXoxnoProxyMethodsNtNtNtNtCseXgWFdEnwTg_22multiversx_sc_scenario6facade8world_tx19scenario_query_call16ScenarioEnvQueryuNtNtNtNtNtCsh3ejzyzYXgs_13multiversx_sc5types11interaction4expr15test_sc_address13TestSCAddressuE15ls_token_supplyCsazs3bHuZQb5_14blackbox_tests
FN:267,_RNvMs1_NtCs10KhxTnoMk3_15rs_liquid_xoxno14rs_xoxno_proxyINtB5_25RsLiquidXoxnoProxyMethodsNtNtNtNtCseXgWFdEnwTg_22multiversx_sc_scenario6facade8world_tx19scenario_query_call16ScenarioEnvQueryuNtNtNtNtNtCsh3ejzyzYXgs_13multiversx_sc5types11interaction4expr15test_sc_address13TestSCAddressuE20unstake_token_supplyCsazs3bHuZQb5_14blackbox_tests
FN:249,_RNvMs1_NtCs10KhxTnoMk3_15rs_liquid_xoxno14rs_xoxno_proxyINtB5_25RsLiquidXoxnoProxyMethodsNtNtNtNtCseXgWFdEnwTg_22multiversx_sc_scenario6facade8world_tx19scenario_query_call16ScenarioEnvQueryuNtNtNtNtNtCsh3ejzyzYXgs_13multiversx_sc5types11interaction4expr15test_sc_address13TestSCAddressuE21virtual_xoxno_reserveCsazs3bHuZQb5_14blackbox_tests
FN:213,_RNvMs1_NtCs10KhxTnoMk3_15rs_liquid_xoxno14rs_xoxno_proxyINtB5_25RsLiquidXoxnoProxyMethodsNtNtNtNtCseXgWFdEnwTg_22multiversx_sc_scenario6facade8world_tx19scenario_query_call16ScenarioEnvQueryuNtNtNtNtNtCsh3ejzyzYXgs_13multiversx_sc5types11interaction4expr15test_sc_address13TestSCAddressuE5stateCsazs3bHuZQb5_14blackbox_tests
FN:23,_RNvXNtCs10KhxTnoMk3_15rs_liquid_xoxno14rs_xoxno_proxyNtB2_18RsLiquidXoxnoProxyINtNtNtNtCsh3ejzyzYXgs_13multiversx_sc5types11interaction8tx_proxy12TxProxyTraitNtNtNtNtCseXgWFdEnwTg_22multiversx_sc_scenario6facade8world_tx18scenario_exec_call15ScenarioEnvExecNtNtNtB1j_4expr12test_address11TestAddressNtNtB4b_15test_sc_address13TestSCAddressuE13proxy_methodsCsazs3bHuZQb5_14blackbox_tests
FN:23,_RNvXNtCs10KhxTnoMk3_15rs_liquid_xoxno14rs_xoxno_proxyNtB2_18RsLiquidXoxnoProxyINtNtNtNtCsh3ejzyzYXgs_13multiversx_sc5types11interaction8tx_proxy12TxProxyTraitNtNtNtNtCseXgWFdEnwTg_22multiversx_sc_scenario6facade8world_tx19scenario_query_call16ScenarioEnvQueryuNtNtNtB1j_4expr15test_sc_address13TestSCAddressuE13proxy_methodsCsazs3bHuZQb5_14blackbox_tests
FN:23,_RNvXININtCs9vgV5lU4rR1_15rs_liquid_xoxno14rs_xoxno_proxy0ppppENtB5_18RsLiquidXoxnoProxyINtNtNtNtCsh3ejzyzYXgs_13multiversx_sc5types11interaction8tx_proxy12TxProxyTraitppppE13proxy_methodsB7_
FN:46,_RINvMs_NtCs9vgV5lU4rR1_15rs_liquid_xoxno14rs_xoxno_proxyINtB5_25RsLiquidXoxnoProxyMethodsppupE4initpEB7_
FN:69,_RNvMs0_NtCs9vgV5lU4rR1_15rs_liquid_xoxno14rs_xoxno_proxyINtB5_25RsLiquidXoxnoProxyMethodsppppE7upgradeB7_
FN:88,_RINvMs1_NtCs9vgV5lU4rR1_15rs_liquid_xoxno14rs_xoxno_proxyINtB6_25RsLiquidXoxnoProxyMethodsppppE8delegatepEB8_
FN:100,_RNvMs1_NtCs9vgV5lU4rR1_15rs_liquid_xoxno14rs_xoxno_proxyINtB5_25RsLiquidXoxnoProxyMethodsppppE11un_delegateB7_
FN:108,_RNvMs1_NtCs9vgV5lU4rR1_15rs_liquid_xoxno14rs_xoxno_proxyINtB5_25RsLiquidXoxnoProxyMethodsppppE8withdrawB7_
FN:116,_RNvMs1_NtCs9vgV5lU4rR1_15rs_liquid_xoxno14rs_xoxno_proxyINtB5_25RsLiquidXoxnoProxyMethodsppppE11add_rewardsB7_
FN:124,_RINvMs1_NtCs9vgV5lU4rR1_15rs_liquid_xoxno14rs_xoxno_proxyINtB6_25RsLiquidXoxnoProxyMethodsppppE25get_ls_value_for_positionpEB8_
FN:137,_RINvMs1_NtCs9vgV5lU4rR1_15rs_liquid_xoxno14rs_xoxno_proxyINtB6_25RsLiquidXoxnoProxyMethodsppppE26get_ls_amount_for_positionpEB8_
FN:150,_RNvMs1_NtCs9vgV5lU4rR1_15rs_liquid_xoxno14rs_xoxno_proxyINtB5_25RsLiquidXoxnoProxyMethodsppppE17get_exchange_rateB7_
FN:159,_RINvMs1_NtCs9vgV5lU4rR1_15rs_liquid_xoxno14rs_xoxno_proxyINtB6_25RsLiquidXoxnoProxyMethodsppppE17register_ls_tokenpppEB8_
FN:177,_RINvMs1_NtCs9vgV5lU4rR1_15rs_liquid_xoxno14rs_xoxno_proxyINtB6_25RsLiquidXoxnoProxyMethodsppppE22register_unstake_tokenpppEB8_
FN:195,_RNvMs1_NtCs9vgV5lU4rR1_15rs_liquid_xoxno14rs_xoxno_proxyINtB5_25RsLiquidXoxnoProxyMethodsppppE16set_state_activeB7_
FN:204,_RNvMs1_NtCs9vgV5lU4rR1_15rs_liquid_xoxno14rs_xoxno_proxyINtB5_25RsLiquidXoxnoProxyMethodsppppE18set_state_inactiveB7_
FN:213,_RNvMs1_NtCs9vgV5lU4rR1_15rs_liquid_xoxno14rs_xoxno_proxyINtB5_25RsLiquidXoxnoProxyMethodsppppE5stateB7_
FN:222,_RNvMs1_NtCs9vgV5lU4rR1_15rs_liquid_xoxno14rs_xoxno_proxyINtB5_25RsLiquidXoxnoProxyMethodsppppE8ls_tokenB7_
FN:231,_RNvMs1_NtCs9vgV5lU4rR1_15rs_liquid_xoxno14rs_xoxno_proxyINtB5_25RsLiquidXoxnoProxyMethodsppppE10main_tokenB7_
FN:240,_RNvMs1_NtCs9vgV5lU4rR1_15rs_liquid_xoxno14rs_xoxno_proxyINtB5_25RsLiquidXoxnoProxyMethodsppppE15ls_token_supplyB7_
FN:249,_RNvMs1_NtCs9vgV5lU4rR1_15rs_liquid_xoxno14rs_xoxno_proxyINtB5_25RsLiquidXoxnoProxyMethodsppppE21virtual_xoxno_reserveB7_
FN:258,_RNvMs1_NtCs9vgV5lU4rR1_15rs_liquid_xoxno14rs_xoxno_proxyINtB5_25RsLiquidXoxnoProxyMethodsppppE13unstake_tokenB7_
FN:267,_RNvMs1_NtCs9vgV5lU4rR1_15rs_liquid_xoxno14rs_xoxno_proxyINtB5_25RsLiquidXoxnoProxyMethodsppppE20unstake_token_supplyB7_
FN:278,_RINvXs5_NtCs9vgV5lU4rR1_15rs_liquid_xoxno14rs_xoxno_proxyNtB6_5StateNtNtNtCsjx1dcze9jAA_19multiversx_sc_codec6single6top_en9TopEncode24top_encode_or_handle_errppEB8_
FN:278,_RINvXs6_NtCs9vgV5lU4rR1_15rs_liquid_xoxno14rs_xoxno_proxyNtB6_5StateNtNtNtCsjx1dcze9jAA_19multiversx_sc_codec6single6top_de9TopDecode24top_decode_or_handle_errppEB8_
FN:277,_RNvXs4_NtCs9vgV5lU4rR1_15rs_liquid_xoxno14rs_xoxno_proxyNtB5_5StateNtNtNtCsh3ejzyzYXgs_13multiversx_sc3abi8type_abi7TypeAbi9type_name
FN:277,_RINvXs4_NtCs9vgV5lU4rR1_15rs_liquid_xoxno14rs_xoxno_proxyNtB6_5StateNtNtNtCsh3ejzyzYXgs_13multiversx_sc3abi8type_abi7TypeAbi25provide_type_descriptionspEB8_
FN:285,_RINvXININtCs9vgV5lU4rR1_15rs_liquid_xoxno14rs_xoxno_proxysa_0pEINtB6_17AddLiquidityEventpENtNtNtCsjx1dcze9jAA_19multiversx_sc_codec6single6top_en9TopEncode24top_encode_or_handle_errppEB8_
FN:284,_RNvXININtCs9vgV5lU4rR1_15rs_liquid_xoxno14rs_xoxno_proxys9_0pEINtB5_17AddLiquidityEventpENtNtNtCsh3ejzyzYXgs_13multiversx_sc3abi8type_abi7TypeAbi9type_nameB7_
FN:284,_RINvXININtCs9vgV5lU4rR1_15rs_liquid_xoxno14rs_xoxno_proxys9_0pEINtB6_17AddLiquidityEventpENtNtNtCsh3ejzyzYXgs_13multiversx_sc3abi8type_abi7TypeAbi25provide_type_descriptionspEB8_
FN:301,_RINvXININtCs9vgV5lU4rR1_15rs_liquid_xoxno14rs_xoxno_proxyse_0pEINtB6_20RemoveLiquidityEventpENtNtNtCsjx1dcze9jAA_19multiversx_sc_codec6single6top_en9TopEncode24top_encode_or_handle_errppEB8_
FN:300,_RNvXININtCs9vgV5lU4rR1_15rs_liquid_xoxno14rs_xoxno_proxysd_0pEINtB5_20RemoveLiquidityEventpENtNtNtCsh3ejzyzYXgs_13multiversx_sc3abi8type_abi7TypeAbi9type_nameB7_
FN:300,_RINvXININtCs9vgV5lU4rR1_15rs_liquid_xoxno14rs_xoxno_proxysd_0pEINtB6_20RemoveLiquidityEventpENtNtNtCsh3ejzyzYXgs_13multiversx_sc3abi8type_abi7TypeAbi25provide_type_descriptionspEB8_
FN:319,_RINvXININtCs9vgV5lU4rR1_15rs_liquid_xoxno14rs_xoxno_proxysi_0pEINtB6_15AddRewardsEventpENtNtNtCsjx1dcze9jAA_19multiversx_sc_codec6single6top_en9TopEncode24top_encode_or_handle_errppEB8_
FN:318,_RNvXININtCs9vgV5lU4rR1_15rs_liquid_xoxno14rs_xoxno_proxysh_0pEINtB5_15AddRewardsEventpENtNtNtCsh3ejzyzYXgs_13multiversx_sc3abi8type_abi7TypeAbi9type_nameB7_
FN:318,_RINvXININtCs9vgV5lU4rR1_15rs_liquid_xoxno14rs_xoxno_proxysh_0pEINtB6_15AddRewardsEventpENtNtNtCsh3ejzyzYXgs_13multiversx_sc3abi8type_abi7TypeAbi25provide_type_descriptionspEB8_
FNDA:17,_RINvMs1_NtCs10KhxTnoMk3_15rs_liquid_xoxno14rs_xoxno_proxyINtB6_25RsLiquidXoxnoProxyMethodsNtNtNtNtCseXgWFdEnwTg_22multiversx_sc_scenario6facade8world_tx18scenario_exec_call15ScenarioEnvExecNtNtNtNtNtCsh3ejzyzYXgs_13multiversx_sc5types11interaction4expr12test_address11TestAddressNtNtB35_15test_sc_address13TestSCAddressuE8delegateINtNtNtCsjx1dcze9jAA_19multiversx_sc_codec11multi_types20multi_value_optional13OptionalValueB31_EECsazs3bHuZQb5_14blackbox_tests
FNDA:3,_RINvXs5_NtCs10KhxTnoMk3_15rs_liquid_xoxno14rs_xoxno_proxyNtB6_5StateNtNtNtCsjx1dcze9jAA_19multiversx_sc_codec6single6top_en9TopEncode24top_encode_or_handle_errQINtNtCshTKFwE22Rw2_5alloc3vec3VechENtNtB1a_17codec_err_handler19DefaultErrorHandlerECsazs3bHuZQb5_14blackbox_tests
FNDA:6,_RNvMs1_NtCs10KhxTnoMk3_15rs_liquid_xoxno14rs_xoxno_proxyINtB5_25RsLiquidXoxnoProxyMethodsNtNtNtNtCseXgWFdEnwTg_22multiversx_sc_scenario6facade8world_tx18scenario_exec_call15ScenarioEnvExecNtNtNtNtNtCsh3ejzyzYXgs_13multiversx_sc5types11interaction4expr12test_address11TestAddressNtNtB34_15test_sc_address13TestSCAddressuE11add_rewardsCsazs3bHuZQb5_14blackbox_tests
FNDA:7,_RNvMs1_NtCs10KhxTnoMk3_15rs_liquid_xoxno14rs_xoxno_proxyINtB5_25RsLiquidXoxnoProxyMethodsNtNtNtNtCseXgWFdEnwTg_22multiversx_sc_scenario6facade8world_tx18scenario_exec_call15ScenarioEnvExecNtNtNtNtNtCsh3ejzyzYXgs_13multiversx_sc5types11interaction4expr12test_address11TestAddressNtNtB34_15test_sc_address13TestSCAddressuE11un_delegateCsazs3bHuZQb5_14blackbox_tests
FNDA:12,_RNvMs1_NtCs10KhxTnoMk3_15rs_liquid_xoxno14rs_xoxno_proxyINtB5_25RsLiquidXoxnoProxyMethodsNtNtNtNtCseXgWFdEnwTg_22multiversx_sc_scenario6facade8world_tx18scenario_exec_call15ScenarioEnvExecNtNtNtNtNtCsh3ejzyzYXgs_13multiversx_sc5types11interaction4expr12test_address11TestAddressNtNtB34_15test_sc_address13TestSCAddressuE16set_state_activeCsazs3bHuZQb5_14blackbox_tests
FNDA:1,_RNvMs1_NtCs10KhxTnoMk3_15rs_liquid_xoxno14rs_xoxno_proxyINtB5_25RsLiquidXoxnoProxyMethodsNtNtNtNtCseXgWFdEnwTg_22multiversx_sc_scenario6facade8world_tx18scenario_exec_call15ScenarioEnvExecNtNtNtNtNtCsh3ejzyzYXgs_13multiversx_sc5types11interaction4expr12test_address11TestAddressNtNtB34_15test_sc_address13TestSCAddressuE18set_state_inactiveCsazs3bHuZQb5_14blackbox_tests
FNDA:2,_RNvMs1_NtCs10KhxTnoMk3_15rs_liquid_xoxno14rs_xoxno_proxyINtB5_25RsLiquidXoxnoProxyMethodsNtNtNtNtCseXgWFdEnwTg_22multiversx_sc_scenario6facade8world_tx18scenario_exec_call15ScenarioEnvExecNtNtNtNtNtCsh3ejzyzYXgs_13multiversx_sc5types11interaction4expr12test_address11TestAddressNtNtB34_15test_sc_address13TestSCAddressuE8withdrawCsazs3bHuZQb5_14blackbox_tests
FNDA:1,_RNvMs1_NtCs10KhxTnoMk3_15rs_liquid_xoxno14rs_xoxno_proxyINtB5_25RsLiquidXoxnoProxyMethodsNtNtNtNtCseXgWFdEnwTg_22multiversx_sc_scenario6facade8world_tx19scenario_query_call16ScenarioEnvQueryuNtNtNtNtNtCsh3ejzyzYXgs_13multiversx_sc5types11interaction4expr15test_sc_address13TestSCAddressuE10main_tokenCsazs3bHuZQb5_14blackbox_tests
FNDA:19,_RNvMs1_NtCs10KhxTnoMk3_15rs_liquid_xoxno14rs_xoxno_proxyINtB5_25RsLiquidXoxnoProxyMethodsNtNtNtNtCseXgWFdEnwTg_22multiversx_sc_scenario6facade8world_tx19scenario_query_call16ScenarioEnvQueryuNtNtNtNtNtCsh3ejzyzYXgs_13multiversx_sc5types11interaction4expr15test_sc_address13TestSCAddressuE15ls_token_supplyCsazs3bHuZQb5_14blackbox_tests
FNDA:1,_RNvMs1_NtCs10KhxTnoMk3_15rs_liquid_xoxno14rs_xoxno_proxyINtB5_25RsLiquidXoxnoProxyMethodsNtNtNtNtCseXgWFdEnwTg_22multiversx_sc_scenario6facade8world_tx19scenario_query_call16ScenarioEnvQueryuNtNtNtNtNtCsh3ejzyzYXgs_13multiversx_sc5types11interaction4expr15test_sc_address13TestSCAddressuE20unstake_token_supplyCsazs3bHuZQb5_14blackbox_tests
FNDA:20,_RNvMs1_NtCs10KhxTnoMk3_15rs_liquid_xoxno14rs_xoxno_proxyINtB5_25RsLiquidXoxnoProxyMethodsNtNtNtNtCseXgWFdEnwTg_22multiversx_sc_scenario6facade8world_tx19scenario_query_call16ScenarioEnvQueryuNtNtNtNtNtCsh3ejzyzYXgs_13multiversx_sc5types11interaction4expr15test_sc_address13TestSCAddressuE21virtual_xoxno_reserveCsazs3bHuZQb5_14blackbox_tests
FNDA:3,_RNvMs1_NtCs10KhxTnoMk3_15rs_liquid_xoxno14rs_xoxno_proxyINtB5_25RsLiquidXoxnoProxyMethodsNtNtNtNtCseXgWFdEnwTg_22multiversx_sc_scenario6facade8world_tx19scenario_query_call16ScenarioEnvQueryuNtNtNtNtNtCsh3ejzyzYXgs_13multiversx_sc5types11interaction4expr15test_sc_address13TestSCAddressuE5stateCsazs3bHuZQb5_14blackbox_tests
FNDA:45,_RNvXNtCs10KhxTnoMk3_15rs_liquid_xoxno14rs_xoxno_proxyNtB2_18RsLiquidXoxnoProxyINtNtNtNtCsh3ejzyzYXgs_13multiversx_sc5types11interaction8tx_proxy12TxProxyTraitNtNtNtNtCseXgWFdEnwTg_22multiversx_sc_scenario6facade8world_tx18scenario_exec_call15ScenarioEnvExecNtNtNtB1j_4expr12test_address11TestAddressNtNtB4b_15test_sc_address13TestSCAddressuE13proxy_methodsCsazs3bHuZQb5_14blackbox_tests
FNDA:44,_RNvXNtCs10KhxTnoMk3_15rs_liquid_xoxno14rs_xoxno_proxyNtB2_18RsLiquidXoxnoProxyINtNtNtNtCsh3ejzyzYXgs_13multiversx_sc5types11interaction8tx_proxy12TxProxyTraitNtNtNtNtCseXgWFdEnwTg_22multiversx_sc_scenario6facade8world_tx19scenario_query_call16ScenarioEnvQueryuNtNtNtB1j_4expr15test_sc_address13TestSCAddressuE13proxy_methodsCsazs3bHuZQb5_14blackbox_tests
FNDA:0,_RNvXININtCs9vgV5lU4rR1_15rs_liquid_xoxno14rs_xoxno_proxy0ppppENtB5_18RsLiquidXoxnoProxyINtNtNtNtCsh3ejzyzYXgs_13multiversx_sc5types11interaction8tx_proxy12TxProxyTraitppppE13proxy_methodsB7_
FNDA:0,_RINvMs_NtCs9vgV5lU4rR1_15rs_liquid_xoxno14rs_xoxno_proxyINtB5_25RsLiquidXoxnoProxyMethodsppupE4initpEB7_
FNDA:0,_RNvMs0_NtCs9vgV5lU4rR1_15rs_liquid_xoxno14rs_xoxno_proxyINtB5_25RsLiquidXoxnoProxyMethodsppppE7upgradeB7_
FNDA:0,_RINvMs1_NtCs9vgV5lU4rR1_15rs_liquid_xoxno14rs_xoxno_proxyINtB6_25RsLiquidXoxnoProxyMethodsppppE8delegatepEB8_
FNDA:0,_RNvMs1_NtCs9vgV5lU4rR1_15rs_liquid_xoxno14rs_xoxno_proxyINtB5_25RsLiquidXoxnoProxyMethodsppppE11un_delegateB7_
FNDA:0,_RNvMs1_NtCs9vgV5lU4rR1_15rs_liquid_xoxno14rs_xoxno_proxyINtB5_25RsLiquidXoxnoProxyMethodsppppE8withdrawB7_
FNDA:0,_RNvMs1_NtCs9vgV5lU4rR1_15rs_liquid_xoxno14rs_xoxno_proxyINtB5_25RsLiquidXoxnoProxyMethodsppppE11add_rewardsB7_
FNDA:0,_RINvMs1_NtCs9vgV5lU4rR1_15rs_liquid_xoxno14rs_xoxno_proxyINtB6_25RsLiquidXoxnoProxyMethodsppppE25get_ls_value_for_positionpEB8_
FNDA:0,_RINvMs1_NtCs9vgV5lU4rR1_15rs_liquid_xoxno14rs_xoxno_proxyINtB6_25RsLiquidXoxnoProxyMethodsppppE26get_ls_amount_for_positionpEB8_
FNDA:0,_RNvMs1_NtCs9vgV5lU4rR1_15rs_liquid_xoxno14rs_xoxno_proxyINtB5_25RsLiquidXoxnoProxyMethodsppppE17get_exchange_rateB7_
FNDA:0,_RINvMs1_NtCs9vgV5lU4rR1_15rs_liquid_xoxno14rs_xoxno_proxyINtB6_25RsLiquidXoxnoProxyMethodsppppE17register_ls_tokenpppEB8_
FNDA:0,_RINvMs1_NtCs9vgV5lU4rR1_15rs_liquid_xoxno14rs_xoxno_proxyINtB6_25RsLiquidXoxnoProxyMethodsppppE22register_unstake_tokenpppEB8_
FNDA:0,_RNvMs1_NtCs9vgV5lU4rR1_15rs_liquid_xoxno14rs_xoxno_proxyINtB5_25RsLiquidXoxnoProxyMethodsppppE16set_state_activeB7_
FNDA:0,_RNvMs1_NtCs9vgV5lU4rR1_15rs_liquid_xoxno14rs_xoxno_proxyINtB5_25RsLiquidXoxnoProxyMethodsppppE18set_state_inactiveB7_
FNDA:0,_RNvMs1_NtCs9vgV5lU4rR1_15rs_liquid_xoxno14rs_xoxno_proxyINtB5_25RsLiquidXoxnoProxyMethodsppppE5stateB7_
FNDA:0,_RNvMs1_NtCs9vgV5lU4rR1_15rs_liquid_xoxno14rs_xoxno_proxyINtB5_25RsLiquidXoxnoProxyMethodsppppE8ls_tokenB7_
FNDA:0,_RNvMs1_NtCs9vgV5lU4rR1_15rs_liquid_xoxno14rs_xoxno_proxyINtB5_25RsLiquidXoxnoProxyMethodsppppE10main_tokenB7_
FNDA:0,_RNvMs1_NtCs9vgV5lU4rR1_15rs_liquid_xoxno14rs_xoxno_proxyINtB5_25RsLiquidXoxnoProxyMethodsppppE15ls_token_supplyB7_
FNDA:0,_RNvMs1_NtCs9vgV5lU4rR1_15rs_liquid_xoxno14rs_xoxno_proxyINtB5_25RsLiquidXoxnoProxyMethodsppppE21virtual_xoxno_reserveB7_
FNDA:0,_RNvMs1_NtCs9vgV5lU4rR1_15rs_liquid_xoxno14rs_xoxno_proxyINtB5_25RsLiquidXoxnoProxyMethodsppppE13unstake_tokenB7_
FNDA:0,_RNvMs1_NtCs9vgV5lU4rR1_15rs_liquid_xoxno14rs_xoxno_proxyINtB5_25RsLiquidXoxnoProxyMethodsppppE20unstake_token_supplyB7_
FNDA:0,_RINvXs5_NtCs9vgV5lU4rR1_15rs_liquid_xoxno14rs_xoxno_proxyNtB6_5StateNtNtNtCsjx1dcze9jAA_19multiversx_sc_codec6single6top_en9TopEncode24top_encode_or_handle_errppEB8_
FNDA:0,_RINvXs6_NtCs9vgV5lU4rR1_15rs_liquid_xoxno14rs_xoxno_proxyNtB6_5StateNtNtNtCsjx1dcze9jAA_19multiversx_sc_codec6single6top_de9TopDecode24top_decode_or_handle_errppEB8_
FNDA:0,_RNvXs4_NtCs9vgV5lU4rR1_15rs_liquid_xoxno14rs_xoxno_proxyNtB5_5StateNtNtNtCsh3ejzyzYXgs_13multiversx_sc3abi8type_abi7TypeAbi9type_name
FNDA:0,_RINvXs4_NtCs9vgV5lU4rR1_15rs_liquid_xoxno14rs_xoxno_proxyNtB6_5StateNtNtNtCsh3ejzyzYXgs_13multiversx_sc3abi8type_abi7TypeAbi25provide_type_descriptionspEB8_
FNDA:0,_RINvXININtCs9vgV5lU4rR1_15rs_liquid_xoxno14rs_xoxno_proxysa_0pEINtB6_17AddLiquidityEventpENtNtNtCsjx1dcze9jAA_19multiversx_sc_codec6single6top_en9TopEncode24top_encode_or_handle_errppEB8_
FNDA:0,_RNvXININtCs9vgV5lU4rR1_15rs_liquid_xoxno14rs_xoxno_proxys9_0pEINtB5_17AddLiquidityEventpENtNtNtCsh3ejzyzYXgs_13multiversx_sc3abi8type_abi7TypeAbi9type_nameB7_
FNDA:0,_RINvXININtCs9vgV5lU4rR1_15rs_liquid_xoxno14rs_xoxno_proxys9_0pEINtB6_17AddLiquidityEventpENtNtNtCsh3ejzyzYXgs_13multiversx_sc3abi8type_abi7TypeAbi25provide_type_descriptionspEB8_
FNDA:0,_RINvXININtCs9vgV5lU4rR1_15rs_liquid_xoxno14rs_xoxno_proxyse_0pEINtB6_20RemoveLiquidityEventpENtNtNtCsjx1dcze9jAA_19multiversx_sc_codec6single6top_en9TopEncode24top_encode_or_handle_errppEB8_
FNDA:0,_RNvXININtCs9vgV5lU4rR1_15rs_liquid_xoxno14rs_xoxno_proxysd_0pEINtB5_20RemoveLiquidityEventpENtNtNtCsh3ejzyzYXgs_13multiversx_sc3abi8type_abi7TypeAbi9type_nameB7_
FNDA:0,_RINvXININtCs9vgV5lU4rR1_15rs_liquid_xoxno14rs_xoxno_proxysd_0pEINtB6_20RemoveLiquidityEventpENtNtNtCsh3ejzyzYXgs_13multiversx_sc3abi8type_abi7TypeAbi25provide_type_descriptionspEB8_
FNDA:0,_RINvXININtCs9vgV5lU4rR1_15rs_liquid_xoxno14rs_xoxno_proxysi_0pEINtB6_15AddRewardsEventpENtNtNtCsjx1dcze9jAA_19multiversx_sc_codec6single6top_en9TopEncode24top_encode_or_handle_errppEB8_
FNDA:0,_RNvXININtCs9vgV5lU4rR1_15rs_liquid_xoxno14rs_xoxno_proxysh_0pEINtB5_15AddRewardsEventpENtNtNtCsh3ejzyzYXgs_13multiversx_sc3abi8type_abi7TypeAbi9type_nameB7_
FNDA:0,_RINvXININtCs9vgV5lU4rR1_15rs_liquid_xoxno14rs_xoxno_proxysh_0pEINtB6_15AddRewardsEventpENtNtNtCsh3ejzyzYXgs_13multiversx_sc3abi8type_abi7TypeAbi25provide_type_descriptionspEB8_
FNF:30
FNH:13
DA:23,89
DA:24,89
DA:25,89
DA:46,0
DA:47,0
DA:48,0
DA:49,0
DA:50,0
DA:51,0
DA:52,0
DA:53,0
DA:54,0
DA:55,0
DA:56,0
DA:57,0
DA:69,0
DA:70,0
DA:71,0
DA:72,0
DA:73,0
DA:74,0
DA:75,0
DA:76,0
DA:88,17
DA:89,17
DA:90,17
DA:91,17
DA:92,17
DA:93,17
DA:94,17
DA:95,17
DA:96,17
DA:97,17
DA:98,17
DA:100,7
DA:101,7
DA:102,7
DA:103,7
DA:104,7
DA:105,7
DA:106,7
DA:108,2
DA:109,2
DA:110,2
DA:111,2
DA:112,2
DA:113,2
DA:114,2
DA:116,6
DA:117,6
DA:118,6
DA:119,6
DA:120,6
DA:121,6
DA:122,6
DA:124,0
DA:125,0
DA:126,0
DA:127,0
DA:128,0
DA:129,0
DA:130,0
DA:131,0
DA:132,0
DA:133,0
DA:134,0
DA:135,0
DA:137,0
DA:138,0
DA:139,0
DA:140,0
DA:141,0
DA:142,0
DA:143,0
DA:144,0
DA:145,0
DA:146,0
DA:147,0
DA:148,0
DA:150,0
DA:151,0
DA:152,0
DA:153,0
DA:154,0
DA:155,0
DA:156,0
DA:157,0
DA:159,0
DA:160,0
DA:161,0
DA:162,0
DA:163,0
DA:164,0
DA:165,0
DA:166,0
DA:167,0
DA:168,0
DA:169,0
DA:170,0
DA:171,0
DA:172,0
DA:173,0
DA:174,0
DA:175,0
DA:177,0
DA:178,0
DA:179,0
DA:180,0
DA:181,0
DA:182,0
DA:183,0
DA:184,0
DA:185,0
DA:186,0
DA:187,0
DA:188,0
DA:189,0
DA:190,0
DA:191,0
DA:192,0
DA:193,0
DA:195,12
DA:196,12
DA:197,12
DA:198,12
DA:199,12
DA:200,12
DA:201,12
DA:202,12
DA:204,1
DA:205,1
DA:206,1
DA:207,1
DA:208,1
DA:209,1
DA:210,1
DA:211,1
DA:213,3
DA:214,3
DA:215,3
DA:216,3
DA:217,3
DA:218,3
DA:219,3
DA:220,3
DA:222,0
DA:223,0
DA:224,0
DA:225,0
DA:226,0
DA:227,0
DA:228,0
DA:229,0
DA:231,1
DA:232,1
DA:233,1
DA:234,1
DA:235,1
DA:236,1
DA:237,1
DA:238,1
DA:240,19
DA:241,19
DA:242,19
DA:243,19
DA:244,19
DA:245,19
DA:246,19
DA:247,19
DA:249,20
DA:250,20
DA:251,20
DA:252,20
DA:253,20
DA:254,20
DA:255,20
DA:256,20
DA:258,0
DA:259,0
DA:260,0
DA:261,0
DA:262,0
DA:263,0
DA:264,0
DA:265,0
DA:267,1
DA:268,1
DA:269,1
DA:270,1
DA:271,1
DA:272,1
DA:273,1
DA:274,1
DA:277,0
DA:278,3
DA:284,0
DA:285,0
DA:300,0
DA:301,0
DA:318,0
DA:319,0
BRF:0
BRH:0
LF:202
LH:92
end_of_record